 IBXXXX00

 Timestamp is 63ecaa79 (Wed Feb 15 18:48:41 2023)

 Preferred load address is 10000000

 Start         Length     Name                   Class
 0001:00000000 00000060H .text$di                CODE
 0001:00000060 0001cf30H .text$mn                CODE
 0001:0001cf90 00003080H .text$x                 CODE
 0001:00020010 00000023H .text$yd                CODE
 0002:00000000 0000053cH .idata$5                DATA
 0002:0000053c 00000004H .00cfg                  DATA
 0002:00000540 00000004H .CRT$XCA                DATA
 0002:00000544 00000008H .CRT$XCL                DATA
 0002:0000054c 00000004H .CRT$XCU                DATA
 0002:00000550 00000004H .CRT$XCZ                DATA
 0002:00000554 00000004H .CRT$XIA                DATA
 0002:00000558 00000004H .CRT$XIC                DATA
 0002:0000055c 00000004H .CRT$XIZ                DATA
 0002:00000560 00000004H .CRT$XLA                DATA
 0002:00000564 00000004H .CRT$XLZ                DATA
 0002:00000568 00000004H .CRT$XPA                DATA
 0002:0000056c 00000004H .CRT$XPZ                DATA
 0002:00000570 00000004H .CRT$XTA                DATA
 0002:00000574 00000004H .CRT$XTZ                DATA
 0002:00000578 00000000H .gfids$y                DATA
 0002:00000578 00001d48H .rdata                  DATA
 0002:000022c0 00000000H .rdata$CastGuardVftablesA DATA
 0002:000022c0 00000000H .rdata$CastGuardVftablesC DATA
 0002:000022c0 00000018H .rdata$T                DATA
 0002:000022d8 0000057cH .rdata$r                DATA
 0002:00002854 000001a0H .rdata$sxdata           DATA
 0002:000029f4 000002d4H .rdata$voltmd           DATA
 0002:00002cc8 0000035cH .rdata$zzzdbg           DATA
 0002:00003024 00000004H .rtc$IAA                DATA
 0002:00003028 00000004H .rtc$IZZ                DATA
 0002:0000302c 00000004H .rtc$TAA                DATA
 0002:00003030 00000004H .rtc$TZZ                DATA
 0002:00003034 00000004H .tls                    DATA
 0002:00003038 00000004H .tls$                   DATA
 0002:0000303c 00000004H .tls$ZZZ                DATA
 0002:00003040 000028b0H .xdata$x                DATA
 0002:000058ec 00000000H ATL$__a                 DATA
 0002:000058ec 00000000H ATL$__z                 DATA
 0002:000058f0 00000048H .edata                  DATA
 0002:00005938 00000104H .idata$2                DATA
 0002:00005a3c 00000014H .idata$3                DATA
 0002:00005a50 0000053cH .idata$4                DATA
 0002:00005f8c 0000070eH .idata$6                DATA
 0003:00000000 00000028H .data                   DATA
 0003:00000028 00000080H .data$r                 DATA
 0003:000000a8 00000218H .data$rs                DATA
 0003:000002c0 00000578H .bss                    DATA
 0004:00000000 000000a0H .rsrc$01                DATA
 0004:000000a0 00000560H .rsrc$02                DATA

  Address         Publics by Value              Rva+Base       Lib:Object

 0000:00000000       ___guard_eh_cont_count     00000000     <absolute>
 0000:00000000       ___arm64x_extra_rfe_table  00000000     <absolute>
 0000:00000000       ___guard_longjmp_table     00000000     <absolute>
 0000:00000000       ___hybrid_code_map_count   00000000     <absolute>
 0000:00000000       ___x64_code_ranges_to_entry_points 00000000     <absolute>
 0000:00000000       ___arm64x_native_entrypoint 00000000     <absolute>
 0000:00000000       ___guard_fids_count        00000000     <absolute>
 0000:00000000       ___guard_eh_cont_table     00000000     <absolute>
 0000:00000000       ___hybrid_code_map         00000000     <absolute>
 0000:00000000       ___guard_iat_count         00000000     <absolute>
 0000:00000000       ___arm64x_extra_rfe_table_size 00000000     <absolute>
 0000:00000000       ___arm64x_redirection_metadata 00000000     <absolute>
 0000:00000000       ___x64_code_ranges_to_entry_points_count 00000000     <absolute>
 0000:00000000       ___hybrid_auxiliary_iat_copy 00000000     <absolute>
 0000:00000000       ___guard_iat_table         00000000     <absolute>
 0000:00000000       ___hybrid_auxiliary_iat    00000000     <absolute>
 0000:00000000       ___dynamic_value_reloc_table 00000000     <absolute>
 0000:00000000       ___guard_longjmp_count     00000000     <absolute>
 0000:00000000       ___guard_check_icall_a64n_fptr 00000000     <absolute>
 0000:00000000       ___arm64x_redirection_metadata_count 00000000     <absolute>
 0000:00000000       ___AbsoluteZero            00000000     <absolute>
 0000:00000000       ___enclave_config          00000000     <absolute>
 0000:00000000       ___guard_fids_table        00000000     <absolute>
 0000:0000002c       __tls_array                0000002c     <absolute>
 0000:00000068       ___safe_se_handler_count   00000068     <absolute>
 0000:00000100       ___guard_flags             00000100     <absolute>
 0000:00000000       ___ImageBase               10000000     <linker-defined>
 0001:00000060       ??0CIBXXXX02App@@QAE@XZ    10001060 f   IBXXXX02.obj
 0001:00000090       ?GetThisMessageMap@CIBXXXX02App@@KGPBUAFX_MSGMAP@@XZ 10001090 f   IBXXXX02.obj
 0001:000000a0       ?GetMessageMap@CIBXXXX02App@@MBEPBUAFX_MSGMAP@@XZ 100010a0 f   IBXXXX02.obj
 0001:000000b0       ??1CIBXXXX02App@@UAE@XZ    100010b0 f i IBXXXX02.obj
 0001:000000d0       ??3CObject@@SGXPAX@Z       100010d0 f i IBXXXX02.obj
 0001:000000f0       ??_GCIBXXXX02App@@UAEPAXI@Z 100010f0 f i IBXXXX02.obj
 0001:000000f0       ??_ECIBXXXX02App@@UAEPAXI@Z 100010f0 f i IBXXXX02.obj
 0001:00000140       ?AssertValid@CObject@@UBEXXZ 10001140 f i IBXXXX02.obj
 0001:00000140       ?_Orphan_all@_Container_base0@std@@QAEXXZ 10001140 f i MapWnd.obj
 0001:00000140       ??1CObject@@UAE@XZ         10001140 f i Remain.obj
 0001:00000150       ?DoDataExchange@CWnd@@MAEXPAVCDataExchange@@@Z 10001150 f i MapWnd.obj
 0001:00000150       ?Dump@CObject@@UBEXAAVCDumpContext@@@Z 10001150 f i IBXXXX02.obj
 0001:00000150       ?_Alloc_proxy@_Container_base0@std@@QAEXABU_Fake_allocator@2@@Z 10001150 f i MapWnd.obj
 0001:00000150       ?Serialize@CObject@@UAEXAAVCArchive@@@Z 10001150 f i IBXXXX02.obj
 0001:00000160       ?GetApplicationRestartFlags@CWinApp@@UAEKXZ 10001160 f i IBXXXX02.obj
 0001:00000160       ?GetApplicationRecoveryParameter@CWinApp@@UAEPAXXZ 10001160 f i IBXXXX02.obj
 0001:00000170       ?GetApplicationRecoveryPingInterval@CWinApp@@UAEKXZ 10001170 f i IBXXXX02.obj
 0001:00000180       ?ReopenPreviousFilesAtRestart@CWinApp@@UBEHXZ 10001180 f i IBXXXX02.obj
 0001:000001a0       ?RestoreAutosavedFilesAtRestart@CWinApp@@UBEHXZ 100011a0 f i IBXXXX02.obj
 0001:000001c0       ?SupportsApplicationRecovery@CWinApp@@UBEHXZ 100011c0 f i IBXXXX02.obj
 0001:000001e0       ?SupportsAutosaveAtInterval@CWinApp@@UBEHXZ 100011e0 f i IBXXXX02.obj
 0001:00000200       ?SupportsAutosaveAtRestart@CWinApp@@UBEHXZ 10001200 f i IBXXXX02.obj
 0001:00000220       ?SupportsRestartManager@CWinApp@@UBEHXZ 10001220 f i IBXXXX02.obj
 0001:00000240       ?__empty_global_delete@@YAXPAXI@Z 10001240 f i IBXXXX02.obj
 0001:00000240       ?__global_delete@@YAXPAXI@Z 10001240 f i IBXXXX02.obj
 0001:00000250       ?axCreate@@YGPAVCWnd@@PAV1@@Z 10001250 f   libmap.obj
 0001:00000310       ??$?0AAPAD@?$_Compressed_pair@U?$default_delete@$$BY0A@D@std@@PAD$00@std@@QAE@U_Zero_then_variadic_args_t@1@AAPAD@Z 10001310 f i MapWnd.obj
 0001:00000310       ??$?0AAPAVCAccn@@@?$_Compressed_pair@U?$default_delete@VCAccn@@@std@@PAVCAccn@@$00@std@@QAE@U_Zero_then_variadic_args_t@1@AAPAVCAccn@@@Z 10001310 f i MapWnd.obj
 0001:00000310       ??$?0AAPAVCShMemory@@@?$_Compressed_pair@U?$default_delete@VCShMemory@@@std@@PAVCShMemory@@$00@std@@QAE@U_Zero_then_variadic_args_t@1@AAPAVCShMemory@@@Z 10001310 f i MapWnd.obj
 0001:00000310       ??$?0AAPAVCMapWnd@@@?$_Compressed_pair@U?$default_delete@VCMapWnd@@@std@@PAVCMapWnd@@$00@std@@QAE@U_Zero_then_variadic_args_t@1@AAPAVCMapWnd@@@Z 10001310 f i libmap.obj
 0001:00000310       ??$?0AAPAVCWnd@@@?$_Compressed_pair@U?$default_delete@VCWnd@@@std@@PAVCWnd@@$00@std@@QAE@U_Zero_then_variadic_args_t@1@AAPAVCWnd@@@Z 10001310 f i MapWnd.obj
 0001:00000340       ??$?0U?$default_delete@VCMapWnd@@@std@@$0A@@?$unique_ptr@VCMapWnd@@U?$default_delete@VCMapWnd@@@std@@@std@@QAE@PAVCMapWnd@@@Z 10001340 f i libmap.obj
 0001:00000340       ??$?0U?$default_delete@VCShMemory@@@std@@$0A@@?$unique_ptr@VCShMemory@@U?$default_delete@VCShMemory@@@std@@@std@@QAE@PAVCShMemory@@@Z 10001340 f i MapWnd.obj
 0001:00000340       ??$?0U?$default_delete@VCAccn@@@std@@$0A@@?$unique_ptr@VCAccn@@U?$default_delete@VCAccn@@@std@@@std@@QAE@PAVCAccn@@@Z 10001340 f i MapWnd.obj
 0001:00000340       ??$?0U?$default_delete@VCWnd@@@std@@$0A@@?$unique_ptr@VCWnd@@U?$default_delete@VCWnd@@@std@@@std@@QAE@PAVCWnd@@@Z 10001340 f i MapWnd.obj
 0001:00000340       ??$?0PADU?$default_delete@$$BY0A@D@std@@$0A@X@?$unique_ptr@$$BY0A@DU?$default_delete@$$BY0A@D@std@@@std@@QAE@PAD@Z 10001340 f i MapWnd.obj
 0001:00000370       ??$exchange@PAVCShMemory@@$$T@std@@YAPAVCShMemory@@AAPAV1@$$QA$$T@Z 10001370 f i MapWnd.obj
 0001:00000370       ??$exchange@PADAAPAD@std@@YAPADAAPAD0@Z 10001370 f i MapWnd.obj
 0001:00000370       ??$exchange@PAVCWnd@@$$T@std@@YAPAVCWnd@@AAPAV1@$$QA$$T@Z 10001370 f i MapWnd.obj
 0001:00000370       ??$exchange@PAVCWnd@@AAPAV1@@std@@YAPAVCWnd@@AAPAV1@0@Z 10001370 f i MapWnd.obj
 0001:00000370       ??$exchange@PAVCAccn@@$$T@std@@YAPAVCAccn@@AAPAV1@$$QA$$T@Z 10001370 f i MapWnd.obj
 0001:00000370       ??$exchange@PAD$$T@std@@YAPADAAPAD$$QA$$T@Z 10001370 f i MapWnd.obj
 0001:00000370       ??$exchange@PAVCMapWnd@@$$T@std@@YAPAVCMapWnd@@AAPAV1@$$QA$$T@Z 10001370 f i libmap.obj
 0001:00000370       ??$exchange@PAVCShMemory@@AAPAV1@@std@@YAPAVCShMemory@@AAPAV1@0@Z 10001370 f i MapWnd.obj
 0001:00000390       ??$forward@PAVCAccn@@@std@@YA$$QAPAVCAccn@@AAPAV1@@Z 10001390 f i MapWnd.obj
 0001:00000390       ??$forward@AAPAD@std@@YAAAPADAAPAD@Z 10001390 f i MapWnd.obj
 0001:00000390       ??$move@AAV?$unique_ptr@VCAccn@@U?$default_delete@VCAccn@@@std@@@std@@@std@@YA$$QAV?$unique_ptr@VCAccn@@U?$default_delete@VCAccn@@@std@@@0@AAV10@@Z 10001390 f i MapWnd.obj
 0001:00000390       ??$addressof@V?$unique_ptr@VCShMemory@@U?$default_delete@VCShMemory@@@std@@@std@@@std@@YAPAV?$unique_ptr@VCShMemory@@U?$default_delete@VCShMemory@@@std@@@0@AAV10@@Z 10001390 f i MapWnd.obj
 0001:00000390       ??$forward@AAPAVCShMemory@@@std@@YAAAPAVCShMemory@@AAPAV1@@Z 10001390 f i MapWnd.obj
 0001:00000390       ??$move@AAU?$default_delete@$$BY0A@D@std@@@std@@YA$$QAU?$default_delete@$$BY0A@D@0@AAU10@@Z 10001390 f i MapWnd.obj
 0001:00000390       ??$forward@V?$unique_ptr@VCAccn@@U?$default_delete@VCAccn@@@std@@@std@@@std@@YA$$QAV?$unique_ptr@VCAccn@@U?$default_delete@VCAccn@@@std@@@0@AAV10@@Z 10001390 f i MapWnd.obj
 0001:00000390       ??$_Unfancy@V?$unique_ptr@VCAccn@@U?$default_delete@VCAccn@@@std@@@std@@@std@@YAPAV?$unique_ptr@VCAccn@@U?$default_delete@VCAccn@@@std@@@0@PAV10@@Z 10001390 f i MapWnd.obj
 0001:00000390       ??$addressof@V?$unique_ptr@VCWnd@@U?$default_delete@VCWnd@@@std@@@std@@@std@@YAPAV?$unique_ptr@VCWnd@@U?$default_delete@VCWnd@@@std@@@0@AAV10@@Z 10001390 f i MapWnd.obj
 0001:00000390       ??$forward@U?$default_delete@VCWnd@@@std@@@std@@YA$$QAU?$default_delete@VCWnd@@@0@AAU10@@Z 10001390 f i MapWnd.obj
 0001:00000390       ??$forward@AAPAVCMapWnd@@@std@@YAAAPAVCMapWnd@@AAPAV1@@Z 10001390 f i libmap.obj
 0001:00000390       ??$forward@U?$default_delete@VCShMemory@@@std@@@std@@YA$$QAU?$default_delete@VCShMemory@@@0@AAU10@@Z 10001390 f i MapWnd.obj
 0001:00000390       ??$addressof@V?$unique_ptr@$$BY0A@DU?$default_delete@$$BY0A@D@std@@@std@@@std@@YAPAV?$unique_ptr@$$BY0A@DU?$default_delete@$$BY0A@D@std@@@0@AAV10@@Z 10001390 f i MapWnd.obj
 0001:00000390       ??$_Voidify_iter@PAV?$unique_ptr@VCAccn@@U?$default_delete@VCAccn@@@std@@@std@@@std@@YAPAXPAV?$unique_ptr@VCAccn@@U?$default_delete@VCAccn@@@std@@@0@@Z 10001390 f i MapWnd.obj
 0001:00000390       ??$forward@U?$default_delete@VCAccn@@@std@@@std@@YA$$QAU?$default_delete@VCAccn@@@0@AAU10@@Z 10001390 f i MapWnd.obj
 0001:00000390       ??$forward@AAPAVCAccn@@@std@@YAAAPAVCAccn@@AAPAV1@@Z 10001390 f i MapWnd.obj
 0001:00000390       ??$forward@AAPAVCWnd@@@std@@YAAAPAVCWnd@@AAPAV1@@Z 10001390 f i MapWnd.obj
 0001:000003a0       ??$make_unique@VCMapWnd@@$$V$0A@@std@@YA?AV?$unique_ptr@VCMapWnd@@U?$default_delete@VCMapWnd@@@std@@@0@XZ 100013a0 f i libmap.obj
 0001:00000430       ??1?$unique_ptr@VCWnd@@U?$default_delete@VCWnd@@@std@@@std@@QAE@XZ 10001430 f i MapWnd.obj
 0001:00000430       ??1?$unique_ptr@VCMapWnd@@U?$default_delete@VCMapWnd@@@std@@@std@@QAE@XZ 10001430 f i libmap.obj
 0001:00000470       ??2CObject@@SGPAXI@Z       10001470 f i libmap.obj
 0001:00000490       ?get@?$unique_ptr@$$BY0A@DU?$default_delete@$$BY0A@D@std@@@std@@QBEPADXZ 10001490 f i MapWnd.obj
 0001:00000490       ??C?$unique_ptr@VCShMemory@@U?$default_delete@VCShMemory@@@std@@@std@@QBEPAVCShMemory@@XZ 10001490 f i MapWnd.obj
 0001:00000490       ?get@?$unique_ptr@VCWnd@@U?$default_delete@VCWnd@@@std@@@std@@QBEPAVCWnd@@XZ 10001490 f i MapWnd.obj
 0001:00000490       ?get@?$unique_ptr@VCAccn@@U?$default_delete@VCAccn@@@std@@@std@@QBEPAVCAccn@@XZ 10001490 f i MapWnd.obj
 0001:00000490       ??C?$unique_ptr@VCWnd@@U?$default_delete@VCWnd@@@std@@@std@@QBEPAVCWnd@@XZ 10001490 f i MapWnd.obj
 0001:00000490       ??C?$unique_ptr@VCMapWnd@@U?$default_delete@VCMapWnd@@@std@@@std@@QBEPAVCMapWnd@@XZ 10001490 f i libmap.obj
 0001:000004a0       ??R?$default_delete@VCMapWnd@@@std@@QBEXPAVCMapWnd@@@Z 100014a0 f i libmap.obj
 0001:000004a0       ??R?$default_delete@VCWnd@@@std@@QBEXPAVCWnd@@@Z 100014a0 f i MapWnd.obj
 0001:000004e0       ?_AfxInitManaged@@YAHXZ    100014e0 f i libmap.obj
 0001:000004f0       ?_Get_first@?$_Compressed_pair@U?$default_delete@VCShMemory@@@std@@PAVCShMemory@@$00@std@@QAEAAU?$default_delete@VCShMemory@@@2@XZ 100014f0 f i MapWnd.obj
 0001:000004f0       ?_Get_first@?$_Compressed_pair@V?$allocator@V?$unique_ptr@VCAccn@@U?$default_delete@VCAccn@@@std@@@std@@@std@@V?$_Vector_val@U?$_Simple_types@V?$unique_ptr@VCAccn@@U?$default_delete@VCAccn@@@std@@@std@@@std@@@2@$00@std@@QBEABV?$allocator@V?$unique_ptr@VCAccn@@U?$default_delete@VCAccn@@@std@@@std@@@2@XZ 100014f0 f i MapWnd.obj
 0001:000004f0       ?_Get_first@?$_Compressed_pair@U?$default_delete@$$BY0A@D@std@@PAD$00@std@@QAEAAU?$default_delete@$$BY0A@D@2@XZ 100014f0 f i MapWnd.obj
 0001:000004f0       ??0CObject@@IAE@XZ         100014f0 f i Remain.obj
 0001:000004f0       ??BCRect@@QAEPAUtagRECT@@XZ 100014f0 f i MapWnd.obj
 0001:000004f0       ?_Get_first@?$_Compressed_pair@U?$default_delete@VCWnd@@@std@@PAVCWnd@@$00@std@@QAEAAU?$default_delete@VCWnd@@@2@XZ 100014f0 f i MapWnd.obj
 0001:000004f0       ?_Get_first@?$_Compressed_pair@U?$default_delete@VCAccn@@@std@@PAVCAccn@@$00@std@@QAEAAU?$default_delete@VCAccn@@@2@XZ 100014f0 f i MapWnd.obj
 0001:000004f0       ?_Get_first@?$_Compressed_pair@U?$default_delete@VCMapWnd@@@std@@PAVCMapWnd@@$00@std@@QAEAAU?$default_delete@VCMapWnd@@@2@XZ 100014f0 f i libmap.obj
 0001:000004f0       ??0?$allocator@V?$unique_ptr@VCAccn@@U?$default_delete@VCAccn@@@std@@@std@@@std@@QAE@XZ 100014f0 f i MapWnd.obj
 0001:000004f0       ?_Get_first@?$_Compressed_pair@V?$allocator@V?$unique_ptr@VCAccn@@U?$default_delete@VCAccn@@@std@@@std@@@std@@V?$_Vector_val@U?$_Simple_types@V?$unique_ptr@VCAccn@@U?$default_delete@VCAccn@@@std@@@std@@@std@@@2@$00@std@@QAEAAV?$allocator@V?$unique_ptr@VCAccn@@U?$default_delete@VCAccn@@@std@@@std@@@2@XZ 100014f0 f i MapWnd.obj
 0001:00000500       ?release@?$unique_ptr@VCMapWnd@@U?$default_delete@VCMapWnd@@@std@@@std@@QAEPAVCMapWnd@@XZ 10001500 f i libmap.obj
 0001:00000500       ?release@?$unique_ptr@VCAccn@@U?$default_delete@VCAccn@@@std@@@std@@QAEPAVCAccn@@XZ 10001500 f i MapWnd.obj
 0001:00000500       ?release@?$unique_ptr@VCWnd@@U?$default_delete@VCWnd@@@std@@@std@@QAEPAVCWnd@@XZ 10001500 f i MapWnd.obj
 0001:00000500       ?release@?$unique_ptr@$$BY0A@DU?$default_delete@$$BY0A@D@std@@@std@@QAEPADXZ 10001500 f i MapWnd.obj
 0001:00000500       ?release@?$unique_ptr@VCShMemory@@U?$default_delete@VCShMemory@@@std@@@std@@QAEPAVCShMemory@@XZ 10001500 f i MapWnd.obj
 0001:00000550       ??0CMapWnd@@QAE@XZ         10001550 f   MapWnd.obj
 0001:00000760       ??1CMapWnd@@UAE@XZ         10001760 f   MapWnd.obj
 0001:000008d0       ?OnPaint@CMapWnd@@IAEXXZ   100018d0 f   MapWnd.obj
 0001:00000970       ?OnEraseBkgnd@CMapWnd@@IAEHPAVCDC@@@Z 10001970 f   MapWnd.obj
 0001:00000990       ?OnDestroy@CMapWnd@@IAEXXZ 10001990 f   MapWnd.obj
 0001:00000a90       ?OnMessage@CMapWnd@@IAEJIJ@Z 10001a90 f   MapWnd.obj
 0001:00001550       ?OnRequestOfCtrl@CMapWnd@@IAEJIJ@Z 10002550 f   MapWnd.obj
 0001:00001b90       ?OnRequestLawCheg@CMapWnd@@IAEJIJ@Z 10002b90 f   MapWnd.obj
 0001:00001cb0       ?OnCloseOfCtrl@CMapWnd@@IAEJIJ@Z 10002cb0 f   MapWnd.obj
 0001:00001f00       ?OnReceiveRemainData@CMapWnd@@IAEJIJ@Z 10002f00 f   MapWnd.obj
 0001:00002810       ?GetThisMessageMap@CMapWnd@@KGPBUAFX_MSGMAP@@XZ 10003810 f   MapWnd.obj
 0001:00002820       ?GetMessageMap@CMapWnd@@MBEPBUAFX_MSGMAP@@XZ 10003820 f   MapWnd.obj
 0001:00002830       ?CreateMap@CMapWnd@@QAEHPAVCWnd@@@Z 10003830 f   MapWnd.obj
 0001:00002af0       ?sendRemainTR@CMapWnd@@AAEXV?$CStringT@DV?$StrTraitMFC_DLL@DV?$ChTraitsCRT@D@ATL@@@@@ATL@@0_N1HNNHHPAUHWND__@@@Z 10003af0 f   MapWnd.obj
 0001:000035f0       ?sendLawCheg@CMapWnd@@AAEXV?$CStringT@DV?$StrTraitMFC_DLL@DV?$ChTraitsCRT@D@ATL@@@@@ATL@@000PAUHWND__@@@Z 100045f0 f   MapWnd.obj
 0001:00003780       ?parsingRemainData@CMapWnd@@AAE?AV?$CStringT@DV?$StrTraitMFC_DLL@DV?$ChTraitsCRT@D@ATL@@@@@ATL@@PADHV23@H@Z 10004780 f   MapWnd.obj
 0001:00004420       ?sendToControl@CMapWnd@@AAEXV?$CStringT@DV?$StrTraitMFC_DLL@DV?$ChTraitsCRT@D@ATL@@@@@ATL@@@Z 10005420 f   MapWnd.obj
 0001:000044e0       ?sendToControl@CMapWnd@@AAEXV?$CStringT@DV?$StrTraitMFC_DLL@DV?$ChTraitsCRT@D@ATL@@@@@ATL@@PAVCAccn@@@Z 100054e0 f   MapWnd.obj
 0001:00004770       ?attachCB@CMapWnd@@AAEXPAUHWND__@@V?$CStringT@DV?$StrTraitMFC_DLL@DV?$ChTraitsCRT@D@ATL@@@@@ATL@@@Z 10005770 f   MapWnd.obj
 0001:000048c0       ?detachCB@CMapWnd@@AAEXV?$CStringT@DV?$StrTraitMFC_DLL@DV?$ChTraitsCRT@D@ATL@@@@@ATL@@00@Z 100058c0 f   MapWnd.obj
 0001:00004ac0       ?sendNContTR@CMapWnd@@AAEXV?$CStringT@DV?$StrTraitMFC_DLL@DV?$ChTraitsCRT@D@ATL@@@@@ATL@@@Z 10005ac0 f   MapWnd.obj
 0001:00004f80       ?parsingNContData@CMapWnd@@AAEXPAD@Z 10005f80 f   MapWnd.obj
 0001:000053e0       ?parsingRTS@CMapWnd@@AAEXV?$CStringT@DV?$StrTraitMFC_DLL@DV?$ChTraitsCRT@D@ATL@@@@@ATL@@@Z 100063e0 f   MapWnd.obj
 0001:00005f50       ?parsingRTSx@CMapWnd@@AAEXPAU_alertR@@@Z 10006f50 f   MapWnd.obj
 0001:00006870       ?parsingNotice@CMapWnd@@AAE?AV?$CStringT@DV?$StrTraitMFC_DLL@DV?$ChTraitsCRT@D@ATL@@@@@ATL@@V23@@Z 10007870 f   MapWnd.obj
 0001:00008790       ?getRemainFee@CMapWnd@@AAEHXZ 10009790 f   MapWnd.obj
 0001:000088a0       ?getKey@CMapWnd@@AAE?AV?$CStringT@DV?$StrTraitMFC_DLL@DV?$ChTraitsCRT@D@ATL@@@@@ATL@@_NV23@111H@Z 100098a0 f   MapWnd.obj
 0001:000089e0       ?ledgerTR@CMapWnd@@AAE?AV?$CStringT@DV?$StrTraitMFC_DLL@DV?$ChTraitsCRT@D@ATL@@@@@ATL@@V23@00@Z 100099e0 f   MapWnd.obj
 0001:00008c60       ?openView@CMapWnd@@AAEHHV?$CStringT@DV?$StrTraitMFC_DLL@DV?$ChTraitsCRT@D@ATL@@@@@ATL@@@Z 10009c60 f   MapWnd.obj
 0001:00008cf0       ?parser@CMapWnd@@AAE?AV?$CStringT@DV?$StrTraitMFC_DLL@DV?$ChTraitsCRT@D@ATL@@@@@ATL@@AAV23@V23@@Z 10009cf0 f   MapWnd.obj
 0001:00008e90       ?getTime@CMapWnd@@AAE?AV?$CStringT@DV?$StrTraitMFC_DLL@DV?$ChTraitsCRT@D@ATL@@@@@ATL@@XZ 10009e90 f   MapWnd.obj
 0001:00008f70       ?variant@CMapWnd@@AAE?AV?$CStringT@DV?$StrTraitMFC_DLL@DV?$ChTraitsCRT@D@ATL@@@@@ATL@@HV23@@Z 10009f70 f   MapWnd.obj
 0001:00009010       ?removeAccn@CMapWnd@@AAEXV?$CStringT@DV?$StrTraitMFC_DLL@DV?$ChTraitsCRT@D@ATL@@@@@ATL@@@Z 1000a010 f   MapWnd.obj
 0001:000090d0       ?removeRemain@CMapWnd@@AAEXPAVCAccn@@@Z 1000a0d0 f   MapWnd.obj
 0001:000091c0       ?LoadCode@CMapWnd@@QAEHXZ  1000a1c0 f   MapWnd.obj
 0001:00009550       ?Set3RDCode@CMapWnd@@QAE_NXZ 1000a550 f   MapWnd.obj
 0001:000095f0       ?Is3RDCode@CMapWnd@@QAE_NV?$CStringT@DV?$StrTraitMFC_DLL@DV?$ChTraitsCRT@D@ATL@@@@@ATL@@@Z 1000a5f0 f   MapWnd.obj
 0001:00009750       ?GetRoot@CMapWnd@@QAE?AV?$CStringT@DV?$StrTraitMFC_DLL@DV?$ChTraitsCRT@D@ATL@@@@@ATL@@XZ 1000a750 f   MapWnd.obj
 0001:000097a0       ?GetUser@CMapWnd@@QAE?AV?$CStringT@DV?$StrTraitMFC_DLL@DV?$ChTraitsCRT@D@ATL@@@@@ATL@@XZ 1000a7a0 f   MapWnd.obj
 0001:000097f0       ?GetName@CMapWnd@@QAE?AV?$CStringT@DV?$StrTraitMFC_DLL@DV?$ChTraitsCRT@D@ATL@@@@@ATL@@XZ 1000a7f0 f   MapWnd.obj
 0001:00009840       ?sendTR@CMapWnd@@QAEHV?$CStringT@DV?$StrTraitMFC_DLL@DV?$ChTraitsCRT@D@ATL@@@@@ATL@@0HH0@Z 1000a840 f   MapWnd.obj
 0001:000099c0       ?GetHandleByKey@CMapWnd@@QAE?AV?$CStringT@DV?$StrTraitMFC_DLL@DV?$ChTraitsCRT@D@ATL@@@@@ATL@@V23@@Z 1000a9c0 f   MapWnd.obj
 0001:00009b60       ?GetNewAccHandleKey@CMapWnd@@QAEHXZ 1000ab60 f   MapWnd.obj
 0001:00009d10       ?GetNewLawHandleKey@CMapWnd@@QAEHXZ 1000ad10 f   MapWnd.obj
 0001:00009ec0       ?RemoveCB@CMapWnd@@AAEXV?$CStringT@DV?$StrTraitMFC_DLL@DV?$ChTraitsCRT@D@ATL@@@@@ATL@@@Z 1000aec0 f   MapWnd.obj
 0001:00009fa0       ?GetRightHwnd@CMapWnd@@AAEPAUHWND__@@V?$CStringT@DV?$StrTraitMFC_DLL@DV?$ChTraitsCRT@D@ATL@@@@@ATL@@@Z 1000afa0 f   MapWnd.obj
 0001:0000a1b0       ?SendLawNotice@CMapWnd@@AAEXV?$CStringT@DV?$StrTraitMFC_DLL@DV?$ChTraitsCRT@D@ATL@@@@@ATL@@@Z 1000b1b0 f   MapWnd.obj
 0001:0000b880       ?GetEncPassword@CMapWnd@@AAE?AV?$CStringT@DV?$StrTraitMFC_DLL@DV?$ChTraitsCRT@D@ATL@@@@@ATL@@V23@@Z 1000c880 f   MapWnd.obj
 0001:0000ba50       ?parseX@@YA?AV?$CStringT@DV?$StrTraitMFC_DLL@DV?$ChTraitsCRT@D@ATL@@@@@ATL@@AAV12@V12@@Z 1000ca50 f   MapWnd.obj
 0001:0000bbf0       ?_httoi@@YAHPBD@Z          1000cbf0 f   MapWnd.obj
 0001:0000be70       ?GetPriceUnit@@YANNV?$CStringT@DV?$StrTraitMFC_DLL@DV?$ChTraitsCRT@D@ATL@@@@@ATL@@_N@Z 1000ce70 f   MapWnd.obj
 0001:0000c010       ?SetComma@@YA?AV?$CStringT@DV?$StrTraitMFC_DLL@DV?$ChTraitsCRT@D@ATL@@@@@ATL@@V12@@Z 1000d010 f   MapWnd.obj
 0001:0000c2c0       ?adjustRect@@YA?AVCRect@@V1@@Z 1000d2c0 f   MapWnd.obj
 0001:0000c340       ?openViewA@@YAHPAVCWnd@@HV?$CStringT@DV?$StrTraitMFC_DLL@DV?$ChTraitsCRT@D@ATL@@@@@ATL@@@Z 1000d340 f   MapWnd.obj
 0001:0000c3c0       ?SendTRA@@YAHPAVCWnd@@V?$CStringT@DV?$StrTraitMFC_DLL@DV?$ChTraitsCRT@D@ATL@@@@@ATL@@E1H1@Z 1000d3c0 f   MapWnd.obj
 0001:0000c550       ?getAxFontA@@YAPAVCFont@@PAVCWnd@@V?$CStringT@DV?$StrTraitMFC_DLL@DV?$ChTraitsCRT@D@ATL@@@@@ATL@@HH@Z 1000d550 f   MapWnd.obj
 0001:0000c610       ?getAxBitmapA@@YAPAVCBitmap@@PAVCWnd@@V?$CStringT@DV?$StrTraitMFC_DLL@DV?$ChTraitsCRT@D@ATL@@@@@ATL@@@Z 1000d610 f   MapWnd.obj
 0001:0000c680       ?getAxPenA@@YAPAVCPen@@PAVCWnd@@KHH@Z 1000d680 f   MapWnd.obj
 0001:0000c6c0       ?getAxBrushA@@YAPAVCBrush@@PAVCWnd@@K@Z 1000d6c0 f   MapWnd.obj
 0001:0000c6e0       ?GetColorA@@YAKPAVCWnd@@H@Z 1000d6e0 f   MapWnd.obj
 0001:0000c710       ?VariantA@@YA?AV?$CStringT@DV?$StrTraitMFC_DLL@DV?$ChTraitsCRT@D@ATL@@@@@ATL@@PAVCWnd@@HV12@@Z 1000d710 f   MapWnd.obj
 0001:0000c810       ?CreateMapObjectA@@YAPAVCWnd@@PAV1@0V?$CStringT@DV?$StrTraitMFC_DLL@DV?$ChTraitsCRT@D@ATL@@@@@ATL@@AAHVCPoint@@@Z 1000d810 f   MapWnd.obj
 0001:0000ca80       ?DeleteMapObjectA@@YAXPAVCWnd@@0H@Z 1000da80 f   MapWnd.obj
 0001:0000cb10       ??$?0$$V@?$_Compressed_pair@U?$default_delete@$$BY0A@D@std@@PAD$00@std@@QAE@U_Zero_then_variadic_args_t@1@@Z 1000db10 f i MapWnd.obj
 0001:0000cb10       ??$?0$$V@?$_Compressed_pair@U?$default_delete@VCWnd@@@std@@PAVCWnd@@$00@std@@QAE@U_Zero_then_variadic_args_t@1@@Z 1000db10 f i MapWnd.obj
 0001:0000cb10       ??$?0$$V@?$_Compressed_pair@U?$default_delete@VCShMemory@@@std@@PAVCShMemory@@$00@std@@QAE@U_Zero_then_variadic_args_t@1@@Z 1000db10 f i MapWnd.obj
 0001:0000cb30       ??$?0$$V@?$_Compressed_pair@V?$allocator@V?$unique_ptr@VCAccn@@U?$default_delete@VCAccn@@@std@@@std@@@std@@V?$_Vector_val@U?$_Simple_types@V?$unique_ptr@VCAccn@@U?$default_delete@VCAccn@@@std@@@std@@@std@@@2@$00@std@@QAE@U_Zero_then_variadic_args_t@1@@Z 1000db30 f i MapWnd.obj
 0001:0000cb50       ??$?0U?$default_delete@VCShMemory@@@std@@$0A@@?$unique_ptr@VCShMemory@@U?$default_delete@VCShMemory@@@std@@@std@@QAE@XZ 1000db50 f i MapWnd.obj
 0001:0000cb50       ??$?0U?$default_delete@$$BY0A@D@std@@$0A@@?$unique_ptr@$$BY0A@DU?$default_delete@$$BY0A@D@std@@@std@@QAE@XZ 1000db50 f i MapWnd.obj
 0001:0000cb80       ??$?0U?$default_delete@VCAccn@@@std@@$0A@@?$unique_ptr@VCAccn@@U?$default_delete@VCAccn@@@std@@@std@@QAE@$$QAV01@@Z 1000db80 f i MapWnd.obj
 0001:0000cbe0       ??$?0U?$default_delete@VCAccn@@@std@@PAVCAccn@@@?$_Compressed_pair@U?$default_delete@VCAccn@@@std@@PAVCAccn@@$00@std@@QAE@U_One_then_variadic_args_t@1@$$QAU?$default_delete@VCAccn@@@1@$$QAPAVCAccn@@@Z 1000dbe0 f i MapWnd.obj
 0001:0000cc10       ??$?0U?$default_delete@VCWnd@@@std@@$0A@@?$unique_ptr@VCWnd@@U?$default_delete@VCWnd@@@std@@@std@@QAE@$$T@Z 1000dc10 f i MapWnd.obj
 0001:0000cc40       ??$?4U?$default_delete@$$BY0A@D@std@@$0A@@?$unique_ptr@$$BY0A@DU?$default_delete@$$BY0A@D@std@@@std@@QAEAAV01@$$QAV01@@Z 1000dc40 f i MapWnd.obj
 0001:0000cc90       ??$?4U?$default_delete@VCShMemory@@@std@@$0A@@?$unique_ptr@VCShMemory@@U?$default_delete@VCShMemory@@@std@@@std@@QAEAAV01@$$QAV01@@Z 1000dc90 f i MapWnd.obj
 0001:0000cce0       ??$?4U?$default_delete@VCWnd@@@std@@$0A@@?$unique_ptr@VCWnd@@U?$default_delete@VCWnd@@@std@@@std@@QAEAAV01@$$QAV01@@Z 1000dce0 f i MapWnd.obj
 0001:0000cd30       ??$?RD$0A@@?$default_delete@$$BY0A@D@std@@QBEXPAD@Z 1000dd30 f i MapWnd.obj
 0001:0000cd60       ??$_Allocate@$07U_Default_allocate_traits@std@@$0A@@std@@YAPAXI@Z 1000dd60 f i MapWnd.obj
 0001:0000cda0       ??$_Allocate_manually_vector_aligned@U_Default_allocate_traits@std@@@std@@YAPAXI@Z 1000dda0 f i MapWnd.obj
 0001:0000ce10       ??$_Deallocate@$07$0A@@std@@YAXPAXI@Z 1000de10 f i MapWnd.obj
 0001:0000ce70       ??$_Destroy_range@V?$allocator@V?$unique_ptr@VCAccn@@U?$default_delete@VCAccn@@@std@@@std@@@std@@@std@@YAXPAV?$unique_ptr@VCAccn@@U?$default_delete@VCAccn@@@std@@@0@QAV10@AAV?$allocator@V?$unique_ptr@VCAccn@@U?$default_delete@VCAccn@@@std@@@std@@@0@@Z 1000de70 f i MapWnd.obj
 0001:0000cee0       ??$_Emplace_back@V?$unique_ptr@VCAccn@@U?$default_delete@VCAccn@@@std@@@std@@@?$_Uninitialized_backout_al@V?$allocator@V?$unique_ptr@VCAccn@@U?$default_delete@VCAccn@@@std@@@std@@@std@@@std@@QAEX$$QAV?$unique_ptr@VCAccn@@U?$default_delete@VCAccn@@@std@@@1@@Z 1000dee0 f i MapWnd.obj
 0001:0000cf40       ??$_Emplace_back_with_unused_capacity@V?$unique_ptr@VCAccn@@U?$default_delete@VCAccn@@@std@@@std@@@?$vector@V?$unique_ptr@VCAccn@@U?$default_delete@VCAccn@@@std@@@std@@V?$allocator@V?$unique_ptr@VCAccn@@U?$default_delete@VCAccn@@@std@@@std@@@2@@std@@AAE?A_T$$QAV?$unique_ptr@VCAccn@@U?$default_delete@VCAccn@@@std@@@1@@Z 1000df40 f i MapWnd.obj
 0001:0000cfd0       ??$_Emplace_reallocate@V?$unique_ptr@VCAccn@@U?$default_delete@VCAccn@@@std@@@std@@@?$vector@V?$unique_ptr@VCAccn@@U?$default_delete@VCAccn@@@std@@@std@@V?$allocator@V?$unique_ptr@VCAccn@@U?$default_delete@VCAccn@@@std@@@std@@@2@@std@@QAEPAV?$unique_ptr@VCAccn@@U?$default_delete@VCAccn@@@std@@@1@QAV21@$$QAV21@@Z 1000dfd0 f i MapWnd.obj
 0001:0000d1b0       ??$_Get_size_of_n@$03@std@@YAII@Z 1000e1b0 f i MapWnd.obj
 0001:0000d1e0       ??$_Get_unwrapped@ABQAV?$unique_ptr@VCAccn@@U?$default_delete@VCAccn@@@std@@@std@@@std@@YA?A_TABQAV?$unique_ptr@VCAccn@@U?$default_delete@VCAccn@@@std@@@0@@Z 1000e1e0 f i MapWnd.obj
 0001:0000d1f0       ??$_Uninitialized_move@PAV?$unique_ptr@VCAccn@@U?$default_delete@VCAccn@@@std@@@std@@V?$allocator@V?$unique_ptr@VCAccn@@U?$default_delete@VCAccn@@@std@@@std@@@2@@std@@YAPAV?$unique_ptr@VCAccn@@U?$default_delete@VCAccn@@@std@@@0@QAV10@0PAV10@AAV?$allocator@V?$unique_ptr@VCAccn@@U?$default_delete@VCAccn@@@std@@@std@@@0@@Z 1000e1f0 f i MapWnd.obj
 0001:0000d2a0       ??$construct@V?$unique_ptr@VCAccn@@U?$default_delete@VCAccn@@@std@@@std@@V12@@?$_Default_allocator_traits@V?$allocator@V?$unique_ptr@VCAccn@@U?$default_delete@VCAccn@@@std@@@std@@@std@@@std@@SAXAAV?$allocator@V?$unique_ptr@VCAccn@@U?$default_delete@VCAccn@@@std@@@std@@@1@QAV?$unique_ptr@VCAccn@@U?$default_delete@VCAccn@@@std@@@1@$$QAV31@@Z 1000e2a0 f i MapWnd.obj
 0001:0000d2e0       ??$destroy@V?$unique_ptr@VCAccn@@U?$default_delete@VCAccn@@@std@@@std@@@?$_Default_allocator_traits@V?$allocator@V?$unique_ptr@VCAccn@@U?$default_delete@VCAccn@@@std@@@std@@@std@@@std@@SAXAAV?$allocator@V?$unique_ptr@VCAccn@@U?$default_delete@VCAccn@@@std@@@std@@@1@QAV?$unique_ptr@VCAccn@@U?$default_delete@VCAccn@@@std@@@1@@Z 1000e2e0 f i MapWnd.obj
 0001:0000d2f0       ??$emplace_back@V?$unique_ptr@VCAccn@@U?$default_delete@VCAccn@@@std@@@std@@@?$vector@V?$unique_ptr@VCAccn@@U?$default_delete@VCAccn@@@std@@@std@@V?$allocator@V?$unique_ptr@VCAccn@@U?$default_delete@VCAccn@@@std@@@std@@@2@@std@@QAE?A_T$$QAV?$unique_ptr@VCAccn@@U?$default_delete@VCAccn@@@std@@@1@@Z 1000e2f0 f i MapWnd.obj
 0001:0000d360       ??$make_unique@$$BY0A@D$0A@@std@@YA?AV?$unique_ptr@$$BY0A@DU?$default_delete@$$BY0A@D@std@@@0@I@Z 1000e360 f i MapWnd.obj
 0001:0000d3d0       ??$make_unique@VCAccn@@$$V$0A@@std@@YA?AV?$unique_ptr@VCAccn@@U?$default_delete@VCAccn@@@std@@@0@XZ 1000e3d0 f i MapWnd.obj
 0001:0000d460       ??$make_unique@VCShMemory@@$$V$0A@@std@@YA?AV?$unique_ptr@VCShMemory@@U?$default_delete@VCShMemory@@@std@@@0@XZ 1000e460 f i MapWnd.obj
 0001:0000d4f0       ??$make_unique@VCWnd@@$$V$0A@@std@@YA?AV?$unique_ptr@VCWnd@@U?$default_delete@VCWnd@@@std@@@0@XZ 1000e4f0 f i MapWnd.obj
 0001:0000d580       ??$min@I@std@@YAABIABI0@Z  1000e580 f i MapWnd.obj
 0001:0000d5b0       ??$reset@PADX@?$unique_ptr@$$BY0A@DU?$default_delete@$$BY0A@D@std@@@std@@QAEXPAD@Z 1000e5b0 f i MapWnd.obj
 0001:0000d5f0       ??0?$_Uninitialized_backout_al@V?$allocator@V?$unique_ptr@VCAccn@@U?$default_delete@VCAccn@@@std@@@std@@@std@@@std@@QAE@PAV?$unique_ptr@VCAccn@@U?$default_delete@VCAccn@@@std@@@1@AAV?$allocator@V?$unique_ptr@VCAccn@@U?$default_delete@VCAccn@@@std@@@std@@@1@@Z 1000e5f0 f i MapWnd.obj
 0001:0000d620       ??0_penR@@QAE@XZ           1000e620 f i MapWnd.obj
 0001:0000d620       ??0?$_Vector_val@U?$_Simple_types@V?$unique_ptr@VCAccn@@U?$default_delete@VCAccn@@@std@@@std@@@std@@@std@@QAE@XZ 1000e620 f i MapWnd.obj
 0001:0000d650       ??0?$vector@V?$unique_ptr@VCAccn@@U?$default_delete@VCAccn@@@std@@@std@@V?$allocator@V?$unique_ptr@VCAccn@@U?$default_delete@VCAccn@@@std@@@std@@@2@@std@@QAE@XZ 1000e650 f i MapWnd.obj
 0001:0000d690       ??0CAccn@@QAE@XZ           1000e690 f i MapWnd.obj
 0001:0000d7a0       ??0CCriticalSection@@QAE@XZ 1000e7a0 f i MapWnd.obj
 0001:0000d820       ??0CRect@@QAE@HHHH@Z       1000e820 f i MapWnd.obj
 0001:0000d860       ??0CRect@@QAE@XZ           1000e860 f i MapWnd.obj
 0001:0000d8a0       ??0CTime@ATL@@QAE@_J@Z     1000e8a0 f i MapWnd.obj
 0001:0000d8c0       ??0_fontR@@QAE@XZ          1000e8c0 f i MapWnd.obj
 0001:0000d900       ??0_ledgerH@@QAE@XZ        1000e900 f i MapWnd.obj
 0001:0000db40       ??0_userTH@@QAE@XZ         1000eb40 f i MapWnd.obj
 0001:0000db70       ??0bad_alloc@std@@AAE@QBD@Z 1000eb70 f i MapWnd.obj
 0001:0000dba0       ??0bad_alloc@std@@QAE@ABV01@@Z 1000eba0 f i MapWnd.obj
 0001:0000dbd0       ??0bad_array_new_length@std@@QAE@ABV01@@Z 1000ebd0 f i MapWnd.obj
 0001:0000dc00       ??0bad_array_new_length@std@@QAE@XZ 1000ec00 f i MapWnd.obj
 0001:0000dc30       ??0exception@std@@QAE@ABV01@@Z 1000ec30 f i MapWnd.obj
 0001:0000dc70       ??0exception@std@@QAE@QBDH@Z 1000ec70 f i MapWnd.obj
 0001:0000dca0       ??1?$_Uninitialized_backout_al@V?$allocator@V?$unique_ptr@VCAccn@@U?$default_delete@VCAccn@@@std@@@std@@@std@@@std@@QAE@XZ 1000eca0 f i MapWnd.obj
 0001:0000dcd0       ??1?$unique_ptr@$$BY0A@DU?$default_delete@$$BY0A@D@std@@@std@@QAE@XZ 1000ecd0 f i MapWnd.obj
 0001:0000dd10       ??1?$unique_ptr@VCAccn@@U?$default_delete@VCAccn@@@std@@@std@@QAE@XZ 1000ed10 f i MapWnd.obj
 0001:0000dd50       ??1?$unique_ptr@VCShMemory@@U?$default_delete@VCShMemory@@@std@@@std@@QAE@XZ 1000ed50 f i MapWnd.obj
 0001:0000dd90       ??1?$vector@V?$unique_ptr@VCAccn@@U?$default_delete@VCAccn@@@std@@@std@@V?$allocator@V?$unique_ptr@VCAccn@@U?$default_delete@VCAccn@@@std@@@std@@@2@@std@@QAE@XZ 1000ed90 f i MapWnd.obj
 0001:0000ddb0       ??1CAccn@@QAE@XZ           1000edb0 f i MapWnd.obj
 0001:0000ddf0       ??1CCriticalSection@@UAE@XZ 1000edf0 f i MapWnd.obj
 0001:0000de20       ??1bad_alloc@std@@UAE@XZ   1000ee20 f i MapWnd.obj
 0001:0000de40       ??1bad_array_new_length@std@@UAE@XZ 1000ee40 f i MapWnd.obj
 0001:0000de60       ??1exception@std@@UAE@XZ   1000ee60 f i MapWnd.obj
 0001:0000de90       ??2@YAPAXIPAX@Z            1000ee90 f i MapWnd.obj
 0001:0000dea0       ??4?$unique_ptr@$$BY0A@DU?$default_delete@$$BY0A@D@std@@@std@@QAEAAV01@$$T@Z 1000eea0 f i MapWnd.obj
 0001:0000dec0       ??8ATL@@YA_NABV?$CStringT@DV?$StrTraitMFC_DLL@DV?$ChTraitsCRT@D@ATL@@@@@0@0@Z 1000eec0 f i MapWnd.obj
 0001:0000df30       ??8ATL@@YA_NABV?$CStringT@DV?$StrTraitMFC_DLL@DV?$ChTraitsCRT@D@ATL@@@@@0@PBD@Z 1000ef30 f i MapWnd.obj
 0001:0000df90       ??9ATL@@YA_NABV?$CStringT@DV?$StrTraitMFC_DLL@DV?$ChTraitsCRT@D@ATL@@@@@0@PBD@Z 1000ef90 f i MapWnd.obj
 0001:0000dff0       ??B?$unique_ptr@$$BY0A@DU?$default_delete@$$BY0A@D@std@@@std@@QBE_NXZ 1000eff0 f i MapWnd.obj
 0001:0000e020       ??HATL@@YA?AV?$CStringT@DV?$StrTraitMFC_DLL@DV?$ChTraitsCRT@D@ATL@@@@@0@ABV10@0@Z 1000f020 f i MapWnd.obj
 0001:0000e0f0       ??HATL@@YA?AV?$CStringT@DV?$StrTraitMFC_DLL@DV?$ChTraitsCRT@D@ATL@@@@@0@ABV10@PBD@Z 1000f0f0 f i MapWnd.obj
 0001:0000e1c0       ??HATL@@YA?AV?$CStringT@DV?$StrTraitMFC_DLL@DV?$ChTraitsCRT@D@ATL@@@@@0@DABV10@@Z 1000f1c0 f i MapWnd.obj
 0001:0000e280       ??HATL@@YA?AV?$CStringT@DV?$StrTraitMFC_DLL@DV?$ChTraitsCRT@D@ATL@@@@@0@PBDABV10@@Z 1000f280 f i MapWnd.obj
 0001:0000e350       ??R?$default_delete@VCAccn@@@std@@QBEXPAVCAccn@@@Z 1000f350 f i MapWnd.obj
 0001:0000e390       ??R?$default_delete@VCShMemory@@@std@@QBEXPAVCShMemory@@@Z 1000f390 f i MapWnd.obj
 0001:0000e3d0       ??_G?$unique_ptr@VCAccn@@U?$default_delete@VCAccn@@@std@@@std@@QAEPAXI@Z 1000f3d0 f i MapWnd.obj
 0001:0000e400       ??_GCAccn@@QAEPAXI@Z       1000f400 f i MapWnd.obj
 0001:0000e430       ??_ECCriticalSection@@UAEPAXI@Z 1000f430 f i MapWnd.obj
 0001:0000e430       ??_GCCriticalSection@@UAEPAXI@Z 1000f430 f i MapWnd.obj
 0001:0000e480       ??_ECMapWnd@@UAEPAXI@Z     1000f480 f i MapWnd.obj
 0001:0000e480       ??_GCMapWnd@@UAEPAXI@Z     1000f480 f i MapWnd.obj
 0001:0000e4d0       ??_Gbad_alloc@std@@UAEPAXI@Z 1000f4d0 f i MapWnd.obj
 0001:0000e4d0       ??_Ebad_alloc@std@@UAEPAXI@Z 1000f4d0 f i MapWnd.obj
 0001:0000e500       ??_Ebad_array_new_length@std@@UAEPAXI@Z 1000f500 f i MapWnd.obj
 0001:0000e500       ??_Gbad_array_new_length@std@@UAEPAXI@Z 1000f500 f i MapWnd.obj
 0001:0000e530       ??_Eexception@std@@UAEPAXI@Z 1000f530 f i MapWnd.obj
 0001:0000e530       ??_Gexception@std@@UAEPAXI@Z 1000f530 f i MapWnd.obj
 0001:0000e560       ?Add@CPtrArray@@QAEHPAX@Z  1000f560 f i MapWnd.obj
 0001:0000e590       ?Add@CStringArray@@QAEHABV?$CStringT@DV?$StrTraitMFC_DLL@DV?$ChTraitsCRT@D@ATL@@@@@ATL@@@Z 1000f590 f i MapWnd.obj
 0001:0000e5c0       ?AtlThrowImpl@ATL@@YGXJ@Z  1000f5c0 f i MapWnd.obj
 0001:0000e5e0       ?BeginModalState@CWnd@@UAEXXZ 1000f5e0 f i MapWnd.obj
 0001:0000e600       ?EndModalState@CWnd@@UAEXXZ 1000f600 f i MapWnd.obj
 0001:0000e620       ?GetAt@CPtrArray@@QBEPAXH@Z 1000f620 f i MapWnd.obj
 0001:0000e650       ?GetAt@CStringArray@@QBEABV?$CStringT@DV?$StrTraitMFC_DLL@DV?$ChTraitsCRT@D@ATL@@@@@ATL@@H@Z 1000f650 f i MapWnd.obj
 0001:0000e680       ?GetClientRect@CWnd@@QBEXPAUtagRECT@@@Z 1000f680 f i MapWnd.obj
 0001:0000e6a0       ?GetCount@CMapStringToPtr@@QBEHXZ 1000f6a0 f i MapWnd.obj
 0001:0000e6c0       ?GetDay@CTime@ATL@@QBEHXZ  1000f6c0 f i MapWnd.obj
 0001:0000e740       ?GetHour@CTime@ATL@@QBEHXZ 1000f740 f i MapWnd.obj
 0001:0000e7c0       ?GetLocalTm@CTime@ATL@@QBEPAUtm@@PAU3@@Z 1000f7c0 f i MapWnd.obj
 0001:0000e860       ?GetMinute@CTime@ATL@@QBEHXZ 1000f860 f i MapWnd.obj
 0001:0000e8e0       ?GetMonth@CTime@ATL@@QBEHXZ 1000f8e0 f i MapWnd.obj
 0001:0000e960       ?GetSecond@CTime@ATL@@QBEHXZ 1000f960 f i MapWnd.obj
 0001:0000e9e0       ?GetSize@CStringArray@@QBEHXZ 1000f9e0 f i MapWnd.obj
 0001:0000e9e0       ?GetSize@CPtrArray@@QBEHXZ 1000f9e0 f i MapWnd.obj
 0001:0000ea00       ?GetStartPosition@CMapStringToString@@QBEPAU__POSITION@@XZ 1000fa00 f i MapWnd.obj
 0001:0000ea00       ?GetStartPosition@CMapStringToPtr@@QBEPAU__POSITION@@XZ 1000fa00 f i MapWnd.obj
 0001:0000ea30       ?GetTickCount@CTime@ATL@@SG?AV12@XZ 1000fa30 f i MapWnd.obj
 0001:0000ea50       ?Init@CCriticalSection@@AAEJXZ 1000fa50 f i MapWnd.obj
 0001:0000ea90       ?Lock@CCriticalSection@@QAEHXZ 1000fa90 f i MapWnd.obj
 0001:0000eab0       ?Lock@CCriticalSection@@UAEHK@Z 1000fab0 f i MapWnd.obj
 0001:0000ead0       ?OffsetRect@CRect@@QAEXHH@Z 1000fad0 f i MapWnd.obj
 0001:0000eaf0       ?OnEraseBkgnd@CWnd@@IAEHPAVCDC@@@Z 1000faf0 f i MapWnd.obj
 0001:0000eb10       ?RemoveAll@CPtrArray@@QAEXXZ 1000fb10 f i MapWnd.obj
 0001:0000eb30       ?RemoveAll@CStringArray@@QAEXXZ 1000fb30 f i MapWnd.obj
 0001:0000eb50       ?SendMessageA@CWnd@@QBEJIIJ@Z 1000fb50 f i MapWnd.obj
 0001:0000eb80       ?SetAt@CMapStringToPtr@@QAEXPBDPAX@Z 1000fb80 f i MapWnd.obj
 0001:0000eba0       ?SetAt@CMapStringToString@@QAEXPBD0@Z 1000fba0 f i MapWnd.obj
 0001:0000ebd0       ?Unlock@CCriticalSection@@UAEHXZ 1000fbd0 f i MapWnd.obj
 0001:0000ebf0       ?Unlock@CSyncObject@@UAEHJPAJ@Z 1000fbf0 f i MapWnd.obj
 0001:0000ec10       ?_Adjust_manually_vector_aligned@std@@YAXAAPAXAAI@Z 1000fc10 f i MapWnd.obj
 0001:0000ec80       ?_Allocate@_Default_allocate_traits@std@@SAPAXI@Z 1000fc80 f i MapWnd.obj
 0001:0000eca0       ?_Calculate_growth@?$vector@V?$unique_ptr@VCAccn@@U?$default_delete@VCAccn@@@std@@@std@@V?$allocator@V?$unique_ptr@VCAccn@@U?$default_delete@VCAccn@@@std@@@std@@@2@@std@@ABEII@Z 1000fca0 f i MapWnd.obj
 0001:0000ed00       ?_Change_array@?$vector@V?$unique_ptr@VCAccn@@U?$default_delete@VCAccn@@@std@@@std@@V?$allocator@V?$unique_ptr@VCAccn@@U?$default_delete@VCAccn@@@std@@@std@@@2@@std@@AAEXQAV?$unique_ptr@VCAccn@@U?$default_delete@VCAccn@@@std@@@2@II@Z 1000fd00 f i MapWnd.obj
 0001:0000edb0       ?_Destroy@?$vector@V?$unique_ptr@VCAccn@@U?$default_delete@VCAccn@@@std@@@std@@V?$allocator@V?$unique_ptr@VCAccn@@U?$default_delete@VCAccn@@@std@@@std@@@2@@std@@AAEXPAV?$unique_ptr@VCAccn@@U?$default_delete@VCAccn@@@std@@@2@0@Z 1000fdb0 f i MapWnd.obj
 0001:0000ede0       ?_Getal@?$vector@V?$unique_ptr@VCAccn@@U?$default_delete@VCAccn@@@std@@@std@@V?$allocator@V?$unique_ptr@VCAccn@@U?$default_delete@VCAccn@@@std@@@std@@@2@@std@@AAEAAV?$allocator@V?$unique_ptr@VCAccn@@U?$default_delete@VCAccn@@@std@@@std@@@2@XZ 1000fde0 f i MapWnd.obj
 0001:0000ede0       ?_Getal@?$vector@V?$unique_ptr@VCAccn@@U?$default_delete@VCAccn@@@std@@@std@@V?$allocator@V?$unique_ptr@VCAccn@@U?$default_delete@VCAccn@@@std@@@std@@@2@@std@@ABEABV?$allocator@V?$unique_ptr@VCAccn@@U?$default_delete@VCAccn@@@std@@@std@@@2@XZ 1000fde0 f i MapWnd.obj
 0001:0000ede0       ?get_deleter@?$unique_ptr@VCAccn@@U?$default_delete@VCAccn@@@std@@@std@@QAEAAU?$default_delete@VCAccn@@@2@XZ 1000fde0 f i MapWnd.obj
 0001:0000ee00       ?_Orphan_range@?$vector@V?$unique_ptr@VCAccn@@U?$default_delete@VCAccn@@@std@@@std@@V?$allocator@V?$unique_ptr@VCAccn@@U?$default_delete@VCAccn@@@std@@@std@@@2@@std@@ABEXPAV?$unique_ptr@VCAccn@@U?$default_delete@VCAccn@@@std@@@2@0@Z 1000fe00 f i MapWnd.obj
 0001:0000ee10       ?_Release@?$_Uninitialized_backout_al@V?$allocator@V?$unique_ptr@VCAccn@@U?$default_delete@VCAccn@@@std@@@std@@@std@@@std@@QAEPAV?$unique_ptr@VCAccn@@U?$default_delete@VCAccn@@@std@@@2@XZ 1000fe10 f i MapWnd.obj
 0001:0000ee30       ?_Throw_bad_array_new_length@std@@YAXXZ 1000fe30 f i MapWnd.obj
 0001:0000ee50       ?_Tidy@?$vector@V?$unique_ptr@VCAccn@@U?$default_delete@VCAccn@@@std@@@std@@V?$allocator@V?$unique_ptr@VCAccn@@U?$default_delete@VCAccn@@@std@@@std@@@2@@std@@AAEXXZ 1000fe50 f i MapWnd.obj
 0001:0000ef20       ?_Umove@?$vector@V?$unique_ptr@VCAccn@@U?$default_delete@VCAccn@@@std@@@std@@V?$allocator@V?$unique_ptr@VCAccn@@U?$default_delete@VCAccn@@@std@@@std@@@2@@std@@AAEPAV?$unique_ptr@VCAccn@@U?$default_delete@VCAccn@@@std@@@2@PAV32@00@Z 1000ff20 f i MapWnd.obj
 0001:0000ef50       ?_Umove_if_noexcept1@?$vector@V?$unique_ptr@VCAccn@@U?$default_delete@VCAccn@@@std@@@std@@V?$allocator@V?$unique_ptr@VCAccn@@U?$default_delete@VCAccn@@@std@@@std@@@2@@std@@AAEXPAV?$unique_ptr@VCAccn@@U?$default_delete@VCAccn@@@std@@@2@00U?$integral_constant@_N$00@2@@Z 1000ff50 f i MapWnd.obj
 0001:0000ef80       ?_Umove_if_noexcept@?$vector@V?$unique_ptr@VCAccn@@U?$default_delete@VCAccn@@@std@@@std@@V?$allocator@V?$unique_ptr@VCAccn@@U?$default_delete@VCAccn@@@std@@@std@@@2@@std@@AAEXPAV?$unique_ptr@VCAccn@@U?$default_delete@VCAccn@@@std@@@2@00@Z 1000ff80 f i MapWnd.obj
 0001:0000efb0       ?_Xlength@?$vector@V?$unique_ptr@VCAccn@@U?$default_delete@VCAccn@@@std@@@std@@V?$allocator@V?$unique_ptr@VCAccn@@U?$default_delete@VCAccn@@@std@@@std@@@2@@std@@CAXXZ 1000ffb0 f i MapWnd.obj
 0001:0000efc0       ?allocate@?$allocator@V?$unique_ptr@VCAccn@@U?$default_delete@VCAccn@@@std@@@std@@@std@@QAEPAV?$unique_ptr@VCAccn@@U?$default_delete@VCAccn@@@std@@@2@I@Z 1000ffc0 f i MapWnd.obj
 0001:0000eff0       ?capacity@?$vector@V?$unique_ptr@VCAccn@@U?$default_delete@VCAccn@@@std@@@std@@V?$allocator@V?$unique_ptr@VCAccn@@U?$default_delete@VCAccn@@@std@@@std@@@2@@std@@QBEIXZ 1000fff0 f i MapWnd.obj
 0001:0000f020       ?deallocate@?$allocator@V?$unique_ptr@VCAccn@@U?$default_delete@VCAccn@@@std@@@std@@@std@@QAEXQAV?$unique_ptr@VCAccn@@U?$default_delete@VCAccn@@@std@@@2@I@Z 10010020 f i MapWnd.obj
 0001:0000f040       ?max@?$numeric_limits@H@std@@SAHXZ 10010040 f i MapWnd.obj
 0001:0000f050       ?max_size@?$_Default_allocator_traits@V?$allocator@V?$unique_ptr@VCAccn@@U?$default_delete@VCAccn@@@std@@@std@@@std@@@std@@SAIABV?$allocator@V?$unique_ptr@VCAccn@@U?$default_delete@VCAccn@@@std@@@std@@@2@@Z 10010050 f i MapWnd.obj
 0001:0000f060       ?max_size@?$vector@V?$unique_ptr@VCAccn@@U?$default_delete@VCAccn@@@std@@@std@@V?$allocator@V?$unique_ptr@VCAccn@@U?$default_delete@VCAccn@@@std@@@std@@@2@@std@@QBEIXZ 10010060 f i MapWnd.obj
 0001:0000f0a0       ?reset@?$unique_ptr@$$BY0A@DU?$default_delete@$$BY0A@D@std@@@std@@QAEX$$T@Z 100100a0 f i MapWnd.obj
 0001:0000f0c0       ?reset@?$unique_ptr@VCShMemory@@U?$default_delete@VCShMemory@@@std@@@std@@QAEXPAVCShMemory@@@Z 100100c0 f i MapWnd.obj
 0001:0000f100       ?reset@?$unique_ptr@VCWnd@@U?$default_delete@VCWnd@@@std@@@std@@QAEXPAVCWnd@@@Z 10010100 f i MapWnd.obj
 0001:0000f140       ?what@exception@std@@UBEPBDXZ 10010140 f i MapWnd.obj
 0001:0000f170       _HRESULT_FROM_WIN32        10010170 f i MapWnd.obj
 0001:0000f1b0       __tcsupr                   100101b0 f i MapWnd.obj
 0001:0000f1d0       ??0CRemain@@QAE@XZ         100101d0 f   Remain.obj
 0001:0000fab0       ??0CRemain@@QAE@PAVCWnd@@@Z 10010ab0 f   Remain.obj
 0001:0000fcd0       ??1CRemain@@UAE@XZ         10010cd0 f   Remain.obj
 0001:0000fe70       ?GetThisMessageMap@CRemain@@KGPBUAFX_MSGMAP@@XZ 10010e70 f   Remain.obj
 0001:0000fe80       ?GetMessageMap@CRemain@@MBEPBUAFX_MSGMAP@@XZ 10010e80 f   Remain.obj
 0001:0000fe90       ?RoundDown@CRemain@@AAENN@Z 10010e90 f   Remain.obj
 0001:0000fed0       ?Round@CRemain@@AAENN@Z    10010ed0 f   Remain.obj
 0001:0000ff00       ?RoundDown2@CRemain@@QAENN@Z 10010f00 f   Remain.obj
 0001:0000ff40       ?TotalData@CRemain@@QAE?AV?$CStringT@DV?$StrTraitMFC_DLL@DV?$ChTraitsCRT@D@ATL@@@@@ATL@@XZ 10010f40 f   Remain.obj
 0001:00010a90       ?ParsingRemainData@CRemain@@QAEXPAD@Z 10011a90 f   Remain.obj
 0001:000123b0       ?ParsingAllaccnData@CRemain@@QAEXV?$CStringT@DV?$StrTraitMFC_DLL@DV?$ChTraitsCRT@D@ATL@@@@@ATL@@@Z 100133b0 f   Remain.obj
 0001:00012940       ?CalRemainData@CRemain@@QAEHAAVCMapStringToString@@V?$CStringT@DV?$StrTraitMFC_DLL@DV?$ChTraitsCRT@D@ATL@@@@@ATL@@_N@Z 10013940 f   Remain.obj
 0001:00013ab0       ?CalPgsonik@CRemain@@QAE_NV?$CStringT@DV?$StrTraitMFC_DLL@DV?$ChTraitsCRT@D@ATL@@@@@ATL@@0H@Z 10014ab0 f   Remain.obj
 0001:00015450       ?FillString@CRemain@@QAEXAAV?$CStringT@DV?$StrTraitMFC_DLL@DV?$ChTraitsCRT@D@ATL@@@@@ATL@@H@Z 10016450 f   Remain.obj
 0001:000154e0       ?getFormatData@CRemain@@AAE?AV?$CStringT@DV?$StrTraitMFC_DLL@DV?$ChTraitsCRT@D@ATL@@@@@ATL@@V23@@Z 100164e0 f   Remain.obj
 0001:000155d0       ?getCredit@CRemain@@AAE?AV?$CStringT@DV?$StrTraitMFC_DLL@DV?$ChTraitsCRT@D@ATL@@@@@ATL@@V23@@Z 100165d0 f   Remain.obj
 0001:000156f0       ?getCreditX@CRemain@@AAE?AV?$CStringT@DV?$StrTraitMFC_DLL@DV?$ChTraitsCRT@D@ATL@@@@@ATL@@V23@@Z 100166f0 f   Remain.obj
 0001:00015810       ?testSaveFile@CRemain@@QAEXV?$CStringT@DV?$StrTraitMFC_DLL@DV?$ChTraitsCRT@D@ATL@@@@@ATL@@@Z 10016810 f   Remain.obj
 0001:00015a10       ??$CompareElements@HH@@YGHPBH0@Z 10016a10 f i Remain.obj
 0001:00015a70       ??$HashKey@H@@YGIH@Z       10016a70 f i Remain.obj
 0001:00015ac0       ??$SerializeElements@H@@YGXAAVCArchive@@PAHH@Z 10016ac0 f i Remain.obj
 0001:00015bc0       ??0?$CMap@HHV?$CStringT@DV?$StrTraitMFC_DLL@DV?$ChTraitsCRT@D@ATL@@@@@ATL@@V12@@@QAE@H@Z 10016bc0 f i Remain.obj
 0001:00015c20       ??0CAssoc@?$CMap@HHV?$CStringT@DV?$StrTraitMFC_DLL@DV?$ChTraitsCRT@D@ATL@@@@@ATL@@V12@@@QAE@H@Z 10016c20 f i Remain.obj
 0001:00015c40       ??0CPair@?$CMap@HHV?$CStringT@DV?$StrTraitMFC_DLL@DV?$ChTraitsCRT@D@ATL@@@@@ATL@@V12@@@IAE@H@Z 10016c40 f i Remain.obj
 0001:00015c70       ??1?$CMap@HHV?$CStringT@DV?$StrTraitMFC_DLL@DV?$ChTraitsCRT@D@ATL@@@@@ATL@@V12@@@UAE@XZ 10016c70 f i Remain.obj
 0001:00015cd0       ??1CAssoc@?$CMap@HHV?$CStringT@DV?$StrTraitMFC_DLL@DV?$ChTraitsCRT@D@ATL@@@@@ATL@@V12@@@QAE@XZ 10016cd0 f i Remain.obj
 0001:00015cf0       ??1CPair@?$CMap@HHV?$CStringT@DV?$StrTraitMFC_DLL@DV?$ChTraitsCRT@D@ATL@@@@@ATL@@V12@@@QAE@XZ 10016cf0 f i Remain.obj
 0001:00015d10       ??A?$CMap@HHV?$CStringT@DV?$StrTraitMFC_DLL@DV?$ChTraitsCRT@D@ATL@@@@@ATL@@V12@@@QAEAAV?$CStringT@DV?$StrTraitMFC_DLL@DV?$ChTraitsCRT@D@ATL@@@@@ATL@@H@Z 10016d10 f i Remain.obj
 0001:00015dd0       ??_G?$CMap@HHV?$CStringT@DV?$StrTraitMFC_DLL@DV?$ChTraitsCRT@D@ATL@@@@@ATL@@V12@@@UAEPAXI@Z 10016dd0 f i Remain.obj
 0001:00015dd0       ??_E?$CMap@HHV?$CStringT@DV?$StrTraitMFC_DLL@DV?$ChTraitsCRT@D@ATL@@@@@ATL@@V12@@@UAEPAXI@Z 10016dd0 f i Remain.obj
 0001:00015e20       ??_ECRemain@@UAEPAXI@Z     10016e20 f i Remain.obj
 0001:00015e20       ??_GCRemain@@UAEPAXI@Z     10016e20 f i Remain.obj
 0001:00015e70       ?EnsureRead@CArchive@@QAEXPAXI@Z 10016e70 f i Remain.obj
 0001:00015eb0       ?GetAssocAt@?$CMap@HHV?$CStringT@DV?$StrTraitMFC_DLL@DV?$ChTraitsCRT@D@ATL@@@@@ATL@@V12@@@IBEPAVCAssoc@1@HAAI0@Z 10016eb0 f i Remain.obj
 0001:00015f40       ?InitHashTable@?$CMap@HHV?$CStringT@DV?$StrTraitMFC_DLL@DV?$ChTraitsCRT@D@ATL@@@@@ATL@@V12@@@QAEXIH@Z 10016f40 f i Remain.obj
 0001:00016000       ?IsStoring@CArchive@@QBEHXZ 10017000 f i Remain.obj
 0001:00016030       ?Lookup@?$CMap@HHV?$CStringT@DV?$StrTraitMFC_DLL@DV?$ChTraitsCRT@D@ATL@@@@@ATL@@V12@@@QBEHHAAV?$CStringT@DV?$StrTraitMFC_DLL@DV?$ChTraitsCRT@D@ATL@@@@@ATL@@@Z 10017030 f i Remain.obj
 0001:00016080       ?NewAssoc@?$CMap@HHV?$CStringT@DV?$StrTraitMFC_DLL@DV?$ChTraitsCRT@D@ATL@@@@@ATL@@V12@@@IAEPAVCAssoc@1@H@Z 10017080 f i Remain.obj
 0001:000161b0       ?RemoveAll@?$CMap@HHV?$CStringT@DV?$StrTraitMFC_DLL@DV?$ChTraitsCRT@D@ATL@@@@@ATL@@V12@@@QAEXXZ 100171b0 f i Remain.obj
 0001:00016260       ?SeekToEnd@CFile@@QAE_KXZ  10017260 f i Remain.obj
 0001:00016290       ?Serialize@?$CMap@HHV?$CStringT@DV?$StrTraitMFC_DLL@DV?$ChTraitsCRT@D@ATL@@@@@ATL@@V12@@@UAEXAAVCArchive@@@Z 10017290 f i Remain.obj
 0001:00016440       ?SetAt@?$CMap@HHV?$CStringT@DV?$StrTraitMFC_DLL@DV?$ChTraitsCRT@D@ATL@@@@@ATL@@V12@@@QAEXHV?$CStringT@DV?$StrTraitMFC_DLL@DV?$ChTraitsCRT@D@ATL@@@@@ATL@@@Z 10017440 f i Remain.obj
 0001:000164b0       ?data@CPlex@@QAEPAXXZ      100174b0 f i Remain.obj
 0001:000164d0       ?parser@CRemain@@AAE?AV?$CStringT@DV?$StrTraitMFC_DLL@DV?$ChTraitsCRT@D@ATL@@@@@ATL@@AAV23@V23@@Z 100174d0 f i Remain.obj
 0001:00016670       ??0CRemainFuture@@QAE@XZ   10017670 f   RemainFuture.obj
 0001:000168f0       ??0CRemainFuture@@QAE@PAVCWnd@@@Z 100178f0 f   RemainFuture.obj
 0001:00016b70       ??1CRemainFuture@@UAE@XZ   10017b70 f   RemainFuture.obj
 0001:00016c70       ?OnDestroy@CRemainFuture@@IAEXXZ 10017c70 f   RemainFuture.obj
 0001:00016c90       ?GetThisMessageMap@CRemainFuture@@KGPBUAFX_MSGMAP@@XZ 10017c90 f   RemainFuture.obj
 0001:00016ca0       ?GetMessageMap@CRemainFuture@@MBEPBUAFX_MSGMAP@@XZ 10017ca0 f   RemainFuture.obj
 0001:00016cb0       ?TotalData@CRemainFuture@@QAE?AV?$CStringT@DV?$StrTraitMFC_DLL@DV?$ChTraitsCRT@D@ATL@@@@@ATL@@XZ 10017cb0 f   RemainFuture.obj
 0001:00017580       ?ParsingRemainData@CRemainFuture@@QAEXPAD@Z 10018580 f   RemainFuture.obj
 0001:00017b30       ?ParsingAllaccnData@CRemainFuture@@QAEXV?$CStringT@DV?$StrTraitMFC_DLL@DV?$ChTraitsCRT@D@ATL@@@@@ATL@@@Z 10018b30 f   RemainFuture.obj
 0001:00017f80       ?CalRemainData@CRemainFuture@@QAEHAAVCMapStringToString@@V?$CStringT@DV?$StrTraitMFC_DLL@DV?$ChTraitsCRT@D@ATL@@@@@ATL@@_N@Z 10018f80 f   RemainFuture.obj
 0001:00018f60       ?CalPgsonik@CRemainFuture@@QAEXXZ 10019f60 f   RemainFuture.obj
 0001:00019670       ?CalPgsonik@CRemainFuture@@QAE_NV?$CStringT@DV?$StrTraitMFC_DLL@DV?$ChTraitsCRT@D@ATL@@@@@ATL@@00@Z 1001a670 f   RemainFuture.obj
 0001:00019890       ?SetNoCont@CRemainFuture@@QAEXV?$CStringT@DV?$StrTraitMFC_DLL@DV?$ChTraitsCRT@D@ATL@@@@@ATL@@H@Z 1001a890 f   RemainFuture.obj
 0001:000199b0       ?GetBaseValue@CRemainFuture@@QAENV?$CStringT@DV?$StrTraitMFC_DLL@DV?$ChTraitsCRT@D@ATL@@@@@ATL@@@Z 1001a9b0 f   RemainFuture.obj
 0001:00019f30       ?getNoCont@CRemainFuture@@AAEHV?$CStringT@DV?$StrTraitMFC_DLL@DV?$ChTraitsCRT@D@ATL@@@@@ATL@@@Z 1001af30 f   RemainFuture.obj
 0001:0001a000       ?parsingNcont@CRemainFuture@@AAEXV?$CStringT@DV?$StrTraitMFC_DLL@DV?$ChTraitsCRT@D@ATL@@@@@ATL@@0H@Z 1001b000 f   RemainFuture.obj
 0001:0001a190       ?getBase@CRemainFuture@@AAEXXZ 1001b190 f   RemainFuture.obj
 0001:0001a440       ?getFormatData@CRemainFuture@@AAE?AV?$CStringT@DV?$StrTraitMFC_DLL@DV?$ChTraitsCRT@D@ATL@@@@@ATL@@V23@@Z 1001b440 f   RemainFuture.obj
 0001:0001a530       ?getJKind@CRemainFuture@@AAEHV?$CStringT@DV?$StrTraitMFC_DLL@DV?$ChTraitsCRT@D@ATL@@@@@ATL@@@Z 1001b530 f   RemainFuture.obj
 0001:0001a930       ?parser@CRemainFuture@@AAE?AV?$CStringT@DV?$StrTraitMFC_DLL@DV?$ChTraitsCRT@D@ATL@@@@@ATL@@AAV23@V23@@Z 1001b930 f   RemainFuture.obj
 0001:0001aad0       ?getString@CRemainFuture@@AAE?AV?$CStringT@DV?$StrTraitMFC_DLL@DV?$ChTraitsCRT@D@ATL@@@@@ATL@@PADH@Z 1001bad0 f   RemainFuture.obj
 0001:0001ab70       ?testSaveFile@CRemainFuture@@QAEXV?$CStringT@DV?$StrTraitMFC_DLL@DV?$ChTraitsCRT@D@ATL@@@@@ATL@@_N@Z 1001bb70 f   RemainFuture.obj
 0001:0001adc0       ??0sfcode@@QAE@XZ          1001bdc0 f i RemainFuture.obj
 0001:0001ae90       ??NATL@@YA_NABV?$CStringT@DV?$StrTraitMFC_DLL@DV?$ChTraitsCRT@D@ATL@@@@@0@PBD@Z 1001be90 f i RemainFuture.obj
 0001:0001aef0       ??OATL@@YA_NABV?$CStringT@DV?$StrTraitMFC_DLL@DV?$ChTraitsCRT@D@ATL@@@@@0@PBD@Z 1001bef0 f i RemainFuture.obj
 0001:0001af50       ??PATL@@YA_NABV?$CStringT@DV?$StrTraitMFC_DLL@DV?$ChTraitsCRT@D@ATL@@@@@0@PBD@Z 1001bf50 f i RemainFuture.obj
 0001:0001afb0       ??_GCRemainFuture@@UAEPAXI@Z 1001bfb0 f i RemainFuture.obj
 0001:0001afb0       ??_ECRemainFuture@@UAEPAXI@Z 1001bfb0 f i RemainFuture.obj
 0001:0001b000       ??0CShMemory@@QAE@XZ       1001c000 f   ShMemory.obj
 0001:0001b060       ??1CShMemory@@UAE@XZ       1001c060 f   ShMemory.obj
 0001:0001b080       ?Close@CShMemory@@QAEXXZ   1001c080 f   ShMemory.obj
 0001:0001b0c0       ?InitSharedMemory@CShMemory@@QAEHPAUHWND__@@@Z 1001c0c0 f   ShMemory.obj
 0001:0001b1c0       ?SendTrigger@CShMemory@@QAEXV?$CStringT@DV?$StrTraitMFC_DLL@DV?$ChTraitsCRT@D@ATL@@@@@ATL@@PAUHWND__@@@Z 1001c1c0 f   ShMemory.obj
 0001:0001b300       ?GetHandle@CShMemory@@QAEPAUHWND__@@H@Z 1001c300 f   ShMemory.obj
 0001:0001b330       ?RemoveHandle@CShMemory@@QAEXPAUHWND__@@@Z 1001c330 f   ShMemory.obj
 0001:0001b3f0       ?AddHandle@CShMemory@@QAEXPAUHWND__@@@Z 1001c3f0 f   ShMemory.obj
 0001:0001b460       ?GetHandleCount@CShMemory@@QAEJXZ 1001c460 f   ShMemory.obj
 0001:0001b480       ??_ECShMemory@@UAEPAXI@Z   1001c480 f i ShMemory.obj
 0001:0001b480       ??_GCShMemory@@UAEPAXI@Z   1001c480 f i ShMemory.obj
 0001:0001b4b0       ?Init@CComCriticalSection@ATL@@QAEJXZ 1001c4b0 f i StdAfx.obj
 0001:0001b520       ?_AtlInitializeCriticalSectionEx@ATL@@YAHPAU_RTL_CRITICAL_SECTION@@KK@Z 1001c520 f i StdAfx.obj
 0001:0001b537       ??3@YAXPAX@Z               1001c537 f   mfc140:mfc140.dll
 0001:0001b53d       ?OnCmdMsg@CCmdTarget@@UAEHIHPAXPAUAFX_CMDHANDLERINFO@@@Z 1001c53d f   mfc140:mfc140.dll
 0001:0001b543       ?OnFinalRelease@CCmdTarget@@UAEXXZ 1001c543 f   mfc140:mfc140.dll
 0001:0001b549       ?IsInvokeAllowed@CCmdTarget@@UAEHJ@Z 1001c549 f   mfc140:mfc140.dll
 0001:0001b54f       ?GetDispatchIID@CCmdTarget@@UAEHPAU_GUID@@@Z 1001c54f f   mfc140:mfc140.dll
 0001:0001b555       ?GetTypeInfoCount@CCmdTarget@@UAEIXZ 1001c555 f   mfc140:mfc140.dll
 0001:0001b55b       ?GetTypeLibCache@CCmdTarget@@UAEPAVCTypeLibCache@@XZ 1001c55b f   mfc140:mfc140.dll
 0001:0001b561       ?GetTypeLib@CCmdTarget@@UAEJKPAPAUITypeLib@@@Z 1001c561 f   mfc140:mfc140.dll
 0001:0001b567       ?GetCommandMap@CCmdTarget@@MBEPBUAFX_OLECMDMAP@@XZ 1001c567 f   mfc140:mfc140.dll
 0001:0001b56d       ?GetDispatchMap@CCmdTarget@@MBEPBUAFX_DISPMAP@@XZ 1001c56d f   mfc140:mfc140.dll
 0001:0001b573       ?GetConnectionMap@CCmdTarget@@MBEPBUAFX_CONNECTIONMAP@@XZ 1001c573 f   mfc140:mfc140.dll
 0001:0001b579       ?GetInterfaceMap@CCmdTarget@@MBEPBUAFX_INTERFACEMAP@@XZ 1001c579 f   mfc140:mfc140.dll
 0001:0001b57f       ?GetEventSinkMap@CCmdTarget@@MBEPBUAFX_EVENTSINKMAP@@XZ 1001c57f f   mfc140:mfc140.dll
 0001:0001b585       ?OnCreateAggregates@CCmdTarget@@UAEHXZ 1001c585 f   mfc140:mfc140.dll
 0001:0001b58b       ?GetInterfaceHook@CCmdTarget@@UAEPAUIUnknown@@PBX@Z 1001c58b f   mfc140:mfc140.dll
 0001:0001b591       ?GetExtraConnectionPoints@CCmdTarget@@MAEHPAVCPtrArray@@@Z 1001c591 f   mfc140:mfc140.dll
 0001:0001b597       ?GetConnectionHook@CCmdTarget@@MAEPAUIConnectionPoint@@ABU_GUID@@@Z 1001c597 f   mfc140:mfc140.dll
 0001:0001b59d       ?PreTranslateMessage@CWinThread@@UAEHPAUtagMSG@@@Z 1001c59d f   mfc140:mfc140.dll
 0001:0001b5a3       ?PumpMessage@CWinThread@@UAEHXZ 1001c5a3 f   mfc140:mfc140.dll
 0001:0001b5a9       ?IsIdleMessage@CWinThread@@UAEHPAUtagMSG@@@Z 1001c5a9 f   mfc140:mfc140.dll
 0001:0001b5af       ?ProcessMessageFilter@CWinThread@@UAEHHPAUtagMSG@@@Z 1001c5af f   mfc140:mfc140.dll
 0001:0001b5b5       ?GetMainWnd@CWinThread@@UAEPAVCWnd@@XZ 1001c5b5 f   mfc140:mfc140.dll
 0001:0001b5bb       ?Delete@CWinThread@@UAEXXZ 1001c5bb f   mfc140:mfc140.dll
 0001:0001b5c1       ?GetRuntimeClass@CWinApp@@UBEPAUCRuntimeClass@@XZ 1001c5c1 f   mfc140:mfc140.dll
 0001:0001b5c7       ??0CWinApp@@QAE@PBD@Z      1001c5c7 f   mfc140:mfc140.dll
 0001:0001b5cd       ?GetProfileIntA@CWinApp@@UAEIPBD0H@Z 1001c5cd f   mfc140:mfc140.dll
 0001:0001b5d3       ?WriteProfileInt@CWinApp@@UAEHPBD0H@Z 1001c5d3 f   mfc140:mfc140.dll
 0001:0001b5d9       ?GetProfileStringA@CWinApp@@UAE?AV?$CStringT@DV?$StrTraitMFC_DLL@DV?$ChTraitsCRT@D@ATL@@@@@ATL@@PBD00@Z 1001c5d9 f   mfc140:mfc140.dll
 0001:0001b5df       ?WriteProfileStringA@CWinApp@@UAEHPBD00@Z 1001c5df f   mfc140:mfc140.dll
 0001:0001b5e5       ?GetProfileBinary@CWinApp@@UAEHPBD0PAPAEPAI@Z 1001c5e5 f   mfc140:mfc140.dll
 0001:0001b5eb       ?WriteProfileBinary@CWinApp@@UAEHPBD0PAEI@Z 1001c5eb f   mfc140:mfc140.dll
 0001:0001b5f1       ?InitLibId@CWinApp@@UAEXXZ 1001c5f1 f   mfc140:mfc140.dll
 0001:0001b5f7       ?Register@CWinApp@@UAEHXZ  1001c5f7 f   mfc140:mfc140.dll
 0001:0001b5fd       ?Unregister@CWinApp@@UAEHXZ 1001c5fd f   mfc140:mfc140.dll
 0001:0001b603       ?OpenDocumentFile@CWinApp@@UAEPAVCDocument@@PBD@Z 1001c603 f   mfc140:mfc140.dll
 0001:0001b609       ?OpenDocumentFile@CWinApp@@UAEPAVCDocument@@PBDH@Z 1001c609 f   mfc140:mfc140.dll
 0001:0001b60f       ?AddToRecentFileList@CWinApp@@UAEXPBD@Z 1001c60f f   mfc140:mfc140.dll
 0001:0001b615       ?InitApplication@CWinApp@@UAEHXZ 1001c615 f   mfc140:mfc140.dll
 0001:0001b61b       ?SaveAllModified@CWinApp@@UAEHXZ 1001c61b f   mfc140:mfc140.dll
 0001:0001b621       ?DoMessageBox@CWinApp@@UAEHPBDII@Z 1001c621 f   mfc140:mfc140.dll
 0001:0001b627       ?DoWaitCursor@CWinApp@@UAEXH@Z 1001c627 f   mfc140:mfc140.dll
 0001:0001b62d       ?OnDDECommand@CWinApp@@UAEHPAD@Z 1001c62d f   mfc140:mfc140.dll
 0001:0001b633       ?WinHelpA@CWinApp@@UAEXKI@Z 1001c633 f   mfc140:mfc140.dll
 0001:0001b639       ?HtmlHelpA@CWinApp@@UAEXKI@Z 1001c639 f   mfc140:mfc140.dll
 0001:0001b63f       ?WinHelpInternal@CWinApp@@UAEXKI@Z 1001c63f f   mfc140:mfc140.dll
 0001:0001b645       ?RegisterWithRestartManager@CWinApp@@UAEJHABV?$CStringT@DV?$StrTraitMFC_DLL@DV?$ChTraitsCRT@D@ATL@@@@@ATL@@@Z 1001c645 f   mfc140:mfc140.dll
 0001:0001b64b       ?RegisterWithRestartManager@CWinApp@@UAEJPB_WKP6GKPAX@Z1KK@Z 1001c64b f   mfc140:mfc140.dll
 0001:0001b651       ?ApplicationRecoveryCallback@CWinApp@@UAEKPAX@Z 1001c651 f   mfc140:mfc140.dll
 0001:0001b657       ?GetDataRecoveryHandler@CWinApp@@UAEPAVCDataRecoveryHandler@@XZ 1001c657 f   mfc140:mfc140.dll
 0001:0001b65d       ?IsTaskbarInteractionEnabled@CWinApp@@UAEHXZ 1001c65d f   mfc140:mfc140.dll
 0001:0001b663       ?InitInstance@CWinApp@@UAEHXZ 1001c663 f   mfc140:mfc140.dll
 0001:0001b669       ?ExitInstance@CWinApp@@UAEHXZ 1001c669 f   mfc140:mfc140.dll
 0001:0001b66f       ?RestartInstance@CWinApp@@UAEHXZ 1001c66f f   mfc140:mfc140.dll
 0001:0001b675       ?Run@CWinApp@@UAEHXZ       1001c675 f   mfc140:mfc140.dll
 0001:0001b67b       ?OnIdle@CWinApp@@UAEHJ@Z   1001c67b f   mfc140:mfc140.dll
 0001:0001b681       ?ProcessWndProcException@CWinApp@@UAEJPAVCException@@PBUtagMSG@@@Z 1001c681 f   mfc140:mfc140.dll
 0001:0001b687       ?LoadAppLangResourceDLL@CWinApp@@UAEPAUHINSTANCE__@@XZ 1001c687 f   mfc140:mfc140.dll
 0001:0001b68d       ??1CWinApp@@UAE@XZ         1001c68d f   mfc140:mfc140.dll
 0001:0001b693       ?GetThisMessageMap@CWinApp@@KGPBUAFX_MSGMAP@@XZ 1001c693 f   mfc140:mfc140.dll
 0001:0001b699       ?LoadSysPolicies@CWinApp@@UAEHXZ 1001c699 f   mfc140:mfc140.dll
 0001:0001b69f       ??2@YAPAXI@Z               1001c69f f   mfc140:mfc140.dll
 0001:0001b6a5       ??0AFX_MAINTAIN_STATE2@@QAE@PAVAFX_MODULE_STATE@@@Z 1001c6a5 f   mfc140:mfc140.dll
 0001:0001b6ab       ??1AFX_MAINTAIN_STATE2@@QAE@XZ 1001c6ab f   mfc140:mfc140.dll
 0001:0001b6b1       ??_U@YAPAXI@Z              1001c6b1 f   mfc140:mfc140.dll
 0001:0001b6b7       ??_V@YAXPAX@Z              1001c6b7 f   mfc140:mfc140.dll
 0001:0001b6bd       ?AfxThrowMemoryException@@YGXXZ 1001c6bd f   mfc140:mfc140.dll
 0001:0001b6c3       ?AfxThrowInvalidArgException@@YGXXZ 1001c6c3 f   mfc140:mfc140.dll
 0001:0001b6c9       ?AfxThrowOleException@@YGXJ@Z 1001c6c9 f   mfc140:mfc140.dll
 0001:0001b6cf       ??0CFile@@QAE@XZ           1001c6cf f   mfc140:mfc140.dll
 0001:0001b6d5       ?Open@CFile@@UAEHPBDIPAVCFileException@@@Z 1001c6d5 f   mfc140:mfc140.dll
 0001:0001b6db       ?GetLength@CFile@@UBE_KXZ  1001c6db f   mfc140:mfc140.dll
 0001:0001b6e1       ?Read@CFile@@UAEIPAXI@Z    1001c6e1 f   mfc140:mfc140.dll
 0001:0001b6e7       ?Close@CFile@@UAEXXZ       1001c6e7 f   mfc140:mfc140.dll
 0001:0001b6ed       ??1CFile@@UAE@XZ           1001c6ed f   mfc140:mfc140.dll
 0001:0001b6f3       ??0CPtrArray@@QAE@XZ       1001c6f3 f   mfc140:mfc140.dll
 0001:0001b6f9       ?SetSize@CPtrArray@@QAEXHH@Z 1001c6f9 f   mfc140:mfc140.dll
 0001:0001b6ff       ?SetAtGrow@CPtrArray@@QAEXHPAX@Z 1001c6ff f   mfc140:mfc140.dll
 0001:0001b705       ??1CPtrArray@@UAE@XZ       1001c705 f   mfc140:mfc140.dll
 0001:0001b70b       ??0CStringArray@@QAE@XZ    1001c70b f   mfc140:mfc140.dll
 0001:0001b711       ?SetSize@CStringArray@@QAEXHH@Z 1001c711 f   mfc140:mfc140.dll
 0001:0001b717       ?SetAtGrow@CStringArray@@QAEXHABV?$CStringT@DV?$StrTraitMFC_DLL@DV?$ChTraitsCRT@D@ATL@@@@@ATL@@@Z 1001c717 f   mfc140:mfc140.dll
 0001:0001b71d       ??1CStringArray@@UAE@XZ    1001c71d f   mfc140:mfc140.dll
 0001:0001b723       ??0CMapStringToPtr@@QAE@H@Z 1001c723 f   mfc140:mfc140.dll
 0001:0001b729       ?Lookup@CMapStringToPtr@@QBEHPBDAAPAX@Z 1001c729 f   mfc140:mfc140.dll
 0001:0001b72f       ??ACMapStringToPtr@@QAEAAPAXPBD@Z 1001c72f f   mfc140:mfc140.dll
 0001:0001b735       ?RemoveKey@CMapStringToPtr@@QAEHPBD@Z 1001c735 f   mfc140:mfc140.dll
 0001:0001b73b       ?RemoveAll@CMapStringToPtr@@QAEXXZ 1001c73b f   mfc140:mfc140.dll
 0001:0001b741       ?GetNextAssoc@CMapStringToPtr@@QBEXAAPAU__POSITION@@AAV?$CStringT@DV?$StrTraitMFC_DLL@DV?$ChTraitsCRT@D@ATL@@@@@ATL@@AAPAX@Z 1001c741 f   mfc140:mfc140.dll
 0001:0001b747       ??1CMapStringToPtr@@UAE@XZ 1001c747 f   mfc140:mfc140.dll
 0001:0001b74d       ??0CMapStringToString@@QAE@H@Z 1001c74d f   mfc140:mfc140.dll
 0001:0001b753       ?Lookup@CMapStringToString@@QBEHPBDAAV?$CStringT@DV?$StrTraitMFC_DLL@DV?$ChTraitsCRT@D@ATL@@@@@ATL@@@Z 1001c753 f   mfc140:mfc140.dll
 0001:0001b759       ??ACMapStringToString@@QAEAAV?$CStringT@DV?$StrTraitMFC_DLL@DV?$ChTraitsCRT@D@ATL@@@@@ATL@@PBD@Z 1001c759 f   mfc140:mfc140.dll
 0001:0001b75f       ?RemoveKey@CMapStringToString@@QAEHPBD@Z 1001c75f f   mfc140:mfc140.dll
 0001:0001b765       ?RemoveAll@CMapStringToString@@QAEXXZ 1001c765 f   mfc140:mfc140.dll
 0001:0001b76b       ?GetNextAssoc@CMapStringToString@@QBEXAAPAU__POSITION@@AAV?$CStringT@DV?$StrTraitMFC_DLL@DV?$ChTraitsCRT@D@ATL@@@@@ATL@@1@Z 1001c76b f   mfc140:mfc140.dll
 0001:0001b771       ??1CMapStringToString@@UAE@XZ 1001c771 f   mfc140:mfc140.dll
 0001:0001b777       ?GetClipBox@CDC@@UBEHPAUtagRECT@@@Z 1001c777 f   mfc140:mfc140.dll
 0001:0001b77d       ?FillSolidRect@CDC@@QAEXPBUtagRECT@@K@Z 1001c77d f   mfc140:mfc140.dll
 0001:0001b783       ??0CPaintDC@@QAE@PAVCWnd@@@Z 1001c783 f   mfc140:mfc140.dll
 0001:0001b789       ??1CPaintDC@@UAE@XZ        1001c789 f   mfc140:mfc140.dll
 0001:0001b78f       ?GetRuntimeClass@CWnd@@UBEPAUCRuntimeClass@@XZ 1001c78f f   mfc140:mfc140.dll
 0001:0001b795       ??0CWnd@@QAE@XZ            1001c795 f   mfc140:mfc140.dll
 0001:0001b79b       ?PreSubclassWindow@CWnd@@UAEXXZ 1001c79b f   mfc140:mfc140.dll
 0001:0001b7a1       ?Create@CWnd@@UAEHPBD0KABUtagRECT@@PAV1@IPAUCCreateContext@@@Z 1001c7a1 f   mfc140:mfc140.dll
 0001:0001b7a7       ?CreateEx@CWnd@@UAEHKPBD0KHHHHPAUHWND__@@PAUHMENU__@@PAX@Z 1001c7a7 f   mfc140:mfc140.dll
 0001:0001b7ad       ?CreateEx@CWnd@@UAEHKPBD0KABUtagRECT@@PAV1@IPAX@Z 1001c7ad f   mfc140:mfc140.dll
 0001:0001b7b3       ?DestroyWindow@CWnd@@UAEHXZ 1001c7b3 f   mfc140:mfc140.dll
 0001:0001b7b9       ?PreCreateWindow@CWnd@@UAEHAAUtagCREATESTRUCTA@@@Z 1001c7b9 f   mfc140:mfc140.dll
 0001:0001b7bf       ?CalcWindowRect@CWnd@@UAEXPAUtagRECT@@I@Z 1001c7bf f   mfc140:mfc140.dll
 0001:0001b7c5       ?GetMenu@CWnd@@UBEPAVCMenu@@XZ 1001c7c5 f   mfc140:mfc140.dll
 0001:0001b7cb       ?SetMenu@CWnd@@UAEHPAVCMenu@@@Z 1001c7cb f   mfc140:mfc140.dll
 0001:0001b7d1       ?SetWindowPos@CWnd@@QAEHPBV1@HHHHI@Z 1001c7d1 f   mfc140:mfc140.dll
 0001:0001b7d7       ?OnToolHitTest@CWnd@@UBEHVCPoint@@PAUtagTOOLINFOA@@@Z 1001c7d7 f   mfc140:mfc140.dll
 0001:0001b7dd       ?GetScrollBarCtrl@CWnd@@UBEPAVCScrollBar@@H@Z 1001c7dd f   mfc140:mfc140.dll
 0001:0001b7e3       ?MessageBoxA@CWnd@@QAEHPBD0I@Z 1001c7e3 f   mfc140:mfc140.dll
 0001:0001b7e9       ?WinHelpA@CWnd@@UAEXKI@Z   1001c7e9 f   mfc140:mfc140.dll
 0001:0001b7ef       ?HtmlHelpA@CWnd@@UAEXKI@Z  1001c7ef f   mfc140:mfc140.dll
 0001:0001b7f5       ?WinHelpInternal@CWnd@@UAEXKI@Z 1001c7f5 f   mfc140:mfc140.dll
 0001:0001b7fb       ?ContinueModal@CWnd@@UAEHXZ 1001c7fb f   mfc140:mfc140.dll
 0001:0001b801       ?EndModalLoop@CWnd@@UAEXH@Z 1001c801 f   mfc140:mfc140.dll
 0001:0001b807       ?OnDrawIconicThumbnailOrLivePreview@CWnd@@UAEXAAVCDC@@VCRect@@VCSize@@HAAH@Z 1001c807 f   mfc140:mfc140.dll
 0001:0001b80d       ?GetInterfaceMap@CWnd@@MBEPBUAFX_INTERFACEMAP@@XZ 1001c80d f   mfc140:mfc140.dll
 0001:0001b813       ?EnsureStdObj@CWnd@@UAEJXZ 1001c813 f   mfc140:mfc140.dll
 0001:0001b819       ?get_accParent@CWnd@@UAEJPAPAUIDispatch@@@Z 1001c819 f   mfc140:mfc140.dll
 0001:0001b81f       ?get_accChildCount@CWnd@@UAEJPAJ@Z 1001c81f f   mfc140:mfc140.dll
 0001:0001b825       ?get_accChild@CWnd@@UAEJUtagVARIANT@@PAPAUIDispatch@@@Z 1001c825 f   mfc140:mfc140.dll
 0001:0001b82b       ?get_accName@CWnd@@UAEJUtagVARIANT@@PAPA_W@Z 1001c82b f   mfc140:mfc140.dll
 0001:0001b831       ?get_accValue@CWnd@@UAEJUtagVARIANT@@PAPA_W@Z 1001c831 f   mfc140:mfc140.dll
 0001:0001b837       ?get_accDescription@CWnd@@UAEJUtagVARIANT@@PAPA_W@Z 1001c837 f   mfc140:mfc140.dll
 0001:0001b83d       ?get_accRole@CWnd@@UAEJUtagVARIANT@@PAU2@@Z 1001c83d f   mfc140:mfc140.dll
 0001:0001b843       ?get_accState@CWnd@@UAEJUtagVARIANT@@PAU2@@Z 1001c843 f   mfc140:mfc140.dll
 0001:0001b849       ?get_accHelp@CWnd@@UAEJUtagVARIANT@@PAPA_W@Z 1001c849 f   mfc140:mfc140.dll
 0001:0001b84f       ?get_accHelpTopic@CWnd@@UAEJPAPA_WUtagVARIANT@@PAJ@Z 1001c84f f   mfc140:mfc140.dll
 0001:0001b855       ?get_accKeyboardShortcut@CWnd@@UAEJUtagVARIANT@@PAPA_W@Z 1001c855 f   mfc140:mfc140.dll
 0001:0001b85b       ?get_accFocus@CWnd@@UAEJPAUtagVARIANT@@@Z 1001c85b f   mfc140:mfc140.dll
 0001:0001b861       ?get_accSelection@CWnd@@UAEJPAUtagVARIANT@@@Z 1001c861 f   mfc140:mfc140.dll
 0001:0001b867       ?get_accDefaultAction@CWnd@@UAEJUtagVARIANT@@PAPA_W@Z 1001c867 f   mfc140:mfc140.dll
 0001:0001b86d       ?accSelect@CWnd@@UAEJJUtagVARIANT@@@Z 1001c86d f   mfc140:mfc140.dll
 0001:0001b873       ?accLocation@CWnd@@UAEJPAJ000UtagVARIANT@@@Z 1001c873 f   mfc140:mfc140.dll
 0001:0001b879       ?accNavigate@CWnd@@UAEJJUtagVARIANT@@PAU2@@Z 1001c879 f   mfc140:mfc140.dll
 0001:0001b87f       ?accHitTest@CWnd@@UAEJJJPAUtagVARIANT@@@Z 1001c87f f   mfc140:mfc140.dll
 0001:0001b885       ?accDoDefaultAction@CWnd@@UAEJUtagVARIANT@@@Z 1001c885 f   mfc140:mfc140.dll
 0001:0001b88b       ?put_accName@CWnd@@UAEJUtagVARIANT@@PA_W@Z 1001c88b f   mfc140:mfc140.dll
 0001:0001b891       ?put_accValue@CWnd@@UAEJUtagVARIANT@@PA_W@Z 1001c891 f   mfc140:mfc140.dll
 0001:0001b897       ?SetProxy@CWnd@@UAEJPAUIAccessibleProxy@@@Z 1001c897 f   mfc140:mfc140.dll
 0001:0001b89d       ?CreateAccessibleProxy@CWnd@@UAEJIJPAJ@Z 1001c89d f   mfc140:mfc140.dll
 0001:0001b8a3       ?OnCommand@CWnd@@MAEHIJ@Z  1001c8a3 f   mfc140:mfc140.dll
 0001:0001b8a9       ?OnNotify@CWnd@@MAEHIJPAJ@Z 1001c8a9 f   mfc140:mfc140.dll
 0001:0001b8af       ?OnDestroy@CWnd@@IAEXXZ    1001c8af f   mfc140:mfc140.dll
 0001:0001b8b5       ?GetSuperWndProcAddr@CWnd@@MAEPAP6GJPAUHWND__@@IIJ@ZXZ 1001c8b5 f   mfc140:mfc140.dll
 0001:0001b8bb       ?PreTranslateMessage@CWnd@@UAEHPAUtagMSG@@@Z 1001c8bb f   mfc140:mfc140.dll
 0001:0001b8c1       ?OnAmbientProperty@CWnd@@UAEHPAVCOleControlSite@@JPAUtagVARIANT@@@Z 1001c8c1 f   mfc140:mfc140.dll
 0001:0001b8c7       ?WindowProc@CWnd@@MAEJIIJ@Z 1001c8c7 f   mfc140:mfc140.dll
 0001:0001b8cd       ?OnWndMsg@CWnd@@MAEHIIJPAJ@Z 1001c8cd f   mfc140:mfc140.dll
 0001:0001b8d3       ?Default@CWnd@@IAEJXZ      1001c8d3 f   mfc140:mfc140.dll
 0001:0001b8d9       ?DefWindowProcA@CWnd@@MAEJIIJ@Z 1001c8d9 f   mfc140:mfc140.dll
 0001:0001b8df       ?PostNcDestroy@CWnd@@MAEXXZ 1001c8df f   mfc140:mfc140.dll
 0001:0001b8e5       ?OnChildNotify@CWnd@@MAEHIIJPAJ@Z 1001c8e5 f   mfc140:mfc140.dll
 0001:0001b8eb       ?OnTouchInputs@CWnd@@MAEHIPAUtagTOUCHINPUT@@@Z 1001c8eb f   mfc140:mfc140.dll
 0001:0001b8f1       ?OnTouchInput@CWnd@@MAEHVCPoint@@HHPAUtagTOUCHINPUT@@@Z 1001c8f1 f   mfc140:mfc140.dll
 0001:0001b8f7       ?GetGestureStatus@CWnd@@MAEKVCPoint@@@Z 1001c8f7 f   mfc140:mfc140.dll
 0001:0001b8fd       ?OnGestureZoom@CWnd@@MAEHVCPoint@@J@Z 1001c8fd f   mfc140:mfc140.dll
 0001:0001b903       ?OnGesturePan@CWnd@@MAEHVCPoint@@0@Z 1001c903 f   mfc140:mfc140.dll
 0001:0001b909       ?OnGestureRotate@CWnd@@MAEHVCPoint@@N@Z 1001c909 f   mfc140:mfc140.dll
 0001:0001b90f       ?OnGestureTwoFingerTap@CWnd@@MAEHVCPoint@@@Z 1001c90f f   mfc140:mfc140.dll
 0001:0001b915       ?OnGesturePressAndTap@CWnd@@MAEHVCPoint@@J@Z 1001c915 f   mfc140:mfc140.dll
 0001:0001b91b       ?ResizeDynamicLayout@CWnd@@MAEXXZ 1001c91b f   mfc140:mfc140.dll
 0001:0001b921       ??1CWnd@@UAE@XZ            1001c921 f   mfc140:mfc140.dll
 0001:0001b927       ?CheckAutoCenter@CWnd@@UAEHXZ 1001c927 f   mfc140:mfc140.dll
 0001:0001b92d       ?IsFrameWnd@CWnd@@UBEHXZ   1001c92d f   mfc140:mfc140.dll
 0001:0001b933       ?OnFinalRelease@CWnd@@UAEXXZ 1001c933 f   mfc140:mfc140.dll
 0001:0001b939       ?CreateControlContainer@CWnd@@MAEHPAPAVCOleControlContainer@@@Z 1001c939 f   mfc140:mfc140.dll
 0001:0001b93f       ?CreateControlSite@CWnd@@MAEHPAVCOleControlContainer@@PAPAVCOleControlSite@@IABU_GUID@@@Z 1001c93f f   mfc140:mfc140.dll
 0001:0001b945       ?SetOccDialogInfo@CWnd@@MAEHPAU_AFX_OCC_DIALOG_INFO@@@Z 1001c945 f   mfc140:mfc140.dll
 0001:0001b94b       ?GetOccDialogInfo@CWnd@@MAEPAU_AFX_OCC_DIALOG_INFO@@XZ 1001c94b f   mfc140:mfc140.dll
 0001:0001b951       ?GetThisMessageMap@CWnd@@KGPBUAFX_MSGMAP@@XZ 1001c951 f   mfc140:mfc140.dll
 0001:0001b957       ??0CSyncObject@@QAE@PBD@Z  1001c957 f   mfc140:mfc140.dll
 0001:0001b95d       ??1CSyncObject@@UAE@XZ     1001c95d f   mfc140:mfc140.dll
 0001:0001b963       ?GetRuntimeClass@CCriticalSection@@UBEPAUCRuntimeClass@@XZ 1001c963 f   mfc140:mfc140.dll
 0001:0001b969       ?AfxThrowArchiveException@@YGXHPBD@Z 1001c969 f   mfc140:mfc140.dll
 0001:0001b96f       ?GetRuntimeClass@CObject@@UBEPAUCRuntimeClass@@XZ 1001c96f f   mfc140:mfc140.dll
 0001:0001b975       ??0CStdioFile@@QAE@XZ      1001c975 f   mfc140:mfc140.dll
 0001:0001b97b       ?WriteString@CStdioFile@@UAEXPBD@Z 1001c97b f   mfc140:mfc140.dll
 0001:0001b981       ??1CStdioFile@@UAE@XZ      1001c981 f   mfc140:mfc140.dll
 0001:0001b987       ?Open@CStdioFile@@UAEHPBDIPAVCFileException@@@Z 1001c987 f   mfc140:mfc140.dll
 0001:0001b98d       ?Write@CStdioFile@@UAEXPBXI@Z 1001c98d f   mfc140:mfc140.dll
 0001:0001b993       ?Close@CStdioFile@@UAEXXZ  1001c993 f   mfc140:mfc140.dll
 0001:0001b999       ?Read@CArchive@@QAEIPAXI@Z 1001c999 f   mfc140:mfc140.dll
 0001:0001b99f       ?Write@CArchive@@QAEXPBXI@Z 1001c99f f   mfc140:mfc140.dll
 0001:0001b9a5       ?ReadCount@CArchive@@QAEKXZ 1001c9a5 f   mfc140:mfc140.dll
 0001:0001b9ab       ?WriteCount@CArchive@@QAEXK@Z 1001c9ab f   mfc140:mfc140.dll
 0001:0001b9b1       ?Create@CPlex@@SGPAU1@AAPAU1@II@Z 1001c9b1 f   mfc140:mfc140.dll
 0001:0001b9b7       ?FreeDataChain@CPlex@@QAEXXZ 1001c9b7 f   mfc140:mfc140.dll
 0001:0001b9bd       ??$SerializeElements@V?$CStringT@DV?$StrTraitMFC_DLL@DV?$ChTraitsCRT@D@ATL@@@@@ATL@@@@YGXAAVCArchive@@PAV?$CStringT@DV?$StrTraitMFC_DLL@DV?$ChTraitsCRT@D@ATL@@@@@ATL@@H@Z 1001c9bd f   mfc140:mfc140.dll
 0001:0001b9c3       ?AfxMessageBox@@YGHPBDII@Z 1001c9c3 f   mfc140:mfc140.dll
 0001:0001b9c9       _RawDllMain@12             1001c9c9 f   mfcs140:dllmodul.obj
 0001:0001ba1c       ??_E_AFX_DLL_MODULE_STATE@@UAEPAXI@Z 1001ca1c f i mfcs140:dllmodul.obj
 0001:0001ba1c       ??_G_AFX_DLL_MODULE_STATE@@UAEPAXI@Z 1001ca1c f i mfcs140:dllmodul.obj
 0001:0001ba4f       ?AfxGetStaticModuleState@@YGPAVAFX_MODULE_STATE@@XZ 1001ca4f f   mfcs140:dllmodul.obj
 0001:0001ba55       ?AfxWndProcDllStatic@@YGJPAUHWND__@@IIJ@Z 1001ca55 f   mfcs140:dllmodul.obj
 0001:0001ba9c       _DllMain@12                1001ca9c f   mfcs140:dllmodul.obj
 0001:0001bae5       _InternalDllMain@12        1001cae5 f   mfcs140:dllmodul.obj
 0001:0001bc6b       ?AfxGetApp@@YGPAVCWinApp@@XZ 1001cc6b f i mfcs140:dllmodulx.obj
 0001:0001bcb8       ___scrt_acquire_startup_lock 1001ccb8 f   msvcrt:utility.obj
 0001:0001bcea       ___scrt_dllmain_after_initialize_c 1001ccea f   msvcrt:utility.obj
 0001:0001bd15       ___scrt_dllmain_before_initialize_c 1001cd15 f   msvcrt:utility.obj
 0001:0001bd23       ___scrt_dllmain_crt_thread_attach 1001cd23 f   msvcrt:utility.obj
 0001:0001bd42       ___scrt_dllmain_crt_thread_detach 1001cd42 f   msvcrt:utility.obj
 0001:0001bd4f       ___scrt_dllmain_exception_filter 1001cd4f f   msvcrt:utility.obj
 0001:0001bd83       ___scrt_dllmain_uninitialize_c 1001cd83 f   msvcrt:utility.obj
 0001:0001bda6       ___scrt_dllmain_uninitialize_critical 1001cda6 f   msvcrt:utility.obj
 0001:0001bdb3       ___scrt_initialize_crt     1001cdb3 f   msvcrt:utility.obj
 0001:0001bdec       ___scrt_initialize_onexit_tables 1001cdec f   msvcrt:utility.obj
 0001:0001be73       ___scrt_is_nonwritable_in_current_image 1001ce73 f   msvcrt:utility.obj
 0001:0001bf07       ___scrt_release_startup_lock 1001cf07 f   msvcrt:utility.obj
 0001:0001bf24       ___scrt_uninitialize_crt   1001cf24 f   msvcrt:utility.obj
 0001:0001bf4c       __onexit                   1001cf4c f   msvcrt:utility.obj
 0001:0001bf79       _atexit                    1001cf79 f   msvcrt:utility.obj
 0001:0001bf8e       ??_Gtype_info@@UAEPAXI@Z   1001cf8e f i msvcrt:std_type_info_static.obj
 0001:0001bf8e       ??_Etype_info@@UAEPAXI@Z   1001cf8e f i msvcrt:std_type_info_static.obj
 0001:0001bfb1       @__security_check_cookie@4 1001cfb1 f   msvcrt:secchk.obj
 0001:0001bfbf       ??3@YAXPAXI@Z              1001cfbf f   msvcrt:delete_scalar_size.obj
 0001:0001bfcd       ??_L@YGXPAXIIP6EX0@Z1@Z    1001cfcd f   msvcrt:ehvecctr.obj
 0001:0001c041       ??_M@YGXPAXIIP6EX0@Z@Z     1001d041 f   msvcrt:ehvecdtr.obj
 0001:0001c0c6       ?__ArrayUnwind@@YGXPAXIIP6EX0@Z@Z 1001d0c6 f   msvcrt:ehvecdtr.obj
 0001:0001c160       __aulldiv                  1001d160 f   msvcrt:ulldiv.obj
 0001:0001c5cd       __DllMainCRTStartup@12     1001d5cd f   msvcrt:dll_dllmain.obj
 0001:0001c5f0       __EH_epilog3               1001d5f0 f   msvcrt:ehprolg3.obj
 0001:0001c604       __EH_prolog3               1001d604 f   msvcrt:ehprolg3.obj
 0001:0001c637       __EH_prolog3_catch         1001d637 f   msvcrt:ehprolg3.obj
 0001:0001c670       __SEH_prolog4              1001d670 f   msvcrt:sehprolg4.obj
 0001:0001c6c0       __except_handler4          1001d6c0 f   msvcrt:chandler4gs.obj
 0001:0001c6ef       @_guard_check_icall_nop@4  1001d6ef f i msvcrt:guard_support.obj
 0001:0001c6f2       ___isa_available_init      1001d6f2 f   msvcrt:cpu_disp.obj
 0001:0001c8c3       __get_startup_argv_mode    1001d8c3 f   msvcrt:argv_mode.obj
 0001:0001c8c7       ___scrt_is_ucrt_dll_in_use 1001d8c7 f   msvcrt:ucrt_detection.obj
 0001:0001c8d3       ___scrt_fastfail           1001d8d3 f   msvcrt:utility_desktop.obj
 0001:0001c9ee       __crt_debugger_hook        1001d9ee f   msvcrt:utility_desktop.obj
 0001:0001c9f6       ___raise_securityfailure   1001d9f6 f   msvcrt:gs_report.obj
 0001:0001ca1e       ___report_gsfailure        1001da1e f   msvcrt:gs_report.obj
 0001:0001cb65       ___security_init_cookie    1001db65 f   msvcrt:gs_support.obj
 0001:0001cbb0       ?__scrt_initialize_type_info@@YAXXZ 1001dbb0 f   msvcrt:tncleanup.obj
 0001:0001cbbc       ?__scrt_uninitialize_type_info@@YAXXZ 1001dbbc f   msvcrt:tncleanup.obj
 0001:0001cbc8       ___local_stdio_printf_options 1001dbc8 f i msvcrt:default_local_stdio_options.obj
 0001:0001cbce       ___local_stdio_scanf_options 1001dbce f i msvcrt:default_local_stdio_options.obj
 0001:0001cbd4       ___scrt_initialize_default_local_stdio_options 1001dbd4 f   msvcrt:default_local_stdio_options.obj
 0001:0001cbf1       ___scrt_get_dyn_tls_init_callback 1001dbf1 f   msvcrt:dyn_tls_init.obj
 0001:0001cbf7       __RTC_Initialize           1001dbf7 f   msvcrt:initsect.obj
 0001:0001cc23       __RTC_Terminate            1001dc23 f   msvcrt:initsect.obj
 0001:0001cc4f       ??0CAtlBaseModule@ATL@@QAE@XZ 1001dc4f f   atls:atlbase.obj
 0001:0001cca2       ??0_ATL_BASE_MODULE70@ATL@@QAE@XZ 1001dca2 f i atls:atlbase.obj
 0001:0001ccc5       ??1CAtlBaseModule@ATL@@QAE@XZ 1001dcc5 f   atls:atlbase.obj
 0001:0001ccdb       ?RemoveAll@?$CSimpleArray@PAUHINSTANCE__@@V?$CSimpleArrayEqualHelper@PAUHINSTANCE__@@@ATL@@@ATL@@QAEXXZ 1001dcdb f i atls:atlbase.obj
 0001:0001ccf8       ?_Xlength_error@std@@YAXPBD@Z 1001dcf8 f   msvcprt:MSVCP140.dll
 0001:0001ccfe       ___CxxFrameHandler3        1001dcfe f   vcruntime:VCRUNTIME140.dll
 0001:0001cd04       _memcpy                    1001dd04 f   vcruntime:VCRUNTIME140.dll
 0001:0001cd0a       _memset                    1001dd0a f   vcruntime:VCRUNTIME140.dll
 0001:0001cd10       ___std_exception_copy      1001dd10 f   vcruntime:VCRUNTIME140.dll
 0001:0001cd16       ___std_exception_destroy   1001dd16 f   vcruntime:VCRUNTIME140.dll
 0001:0001cd1c       __CxxThrowException@8      1001dd1c f   vcruntime:VCRUNTIME140.dll
 0001:0001cd22       ___current_exception       1001dd22 f   vcruntime:VCRUNTIME140.dll
 0001:0001cd28       ___current_exception_context 1001dd28 f   vcruntime:VCRUNTIME140.dll
 0001:0001cd2e       __except_handler4_common   1001dd2e f   vcruntime:VCRUNTIME140.dll
 0001:0001cd34       ___std_type_info_destroy_list 1001dd34 f   vcruntime:VCRUNTIME140.dll
 0001:0001cd3a       _strcpy                    1001dd3a f   ucrt:api-ms-win-crt-string-l1-1-0.dll
 0001:0001cd40       _strlen                    1001dd40 f   ucrt:api-ms-win-crt-string-l1-1-0.dll
 0001:0001cd46       _fabs                      1001dd46 f   ucrt:api-ms-win-crt-math-l1-1-0.dll
 0001:0001cd4c       _free                      1001dd4c f   ucrt:api-ms-win-crt-heap-l1-1-0.dll
 0001:0001cd52       __seh_filter_dll           1001dd52 f   ucrt:api-ms-win-crt-runtime-l1-1-0.dll
 0001:0001cd58       __configure_narrow_argv    1001dd58 f   ucrt:api-ms-win-crt-runtime-l1-1-0.dll
 0001:0001cd5e       __initialize_narrow_environment 1001dd5e f   ucrt:api-ms-win-crt-runtime-l1-1-0.dll
 0001:0001cd64       __initialize_onexit_table  1001dd64 f   ucrt:api-ms-win-crt-runtime-l1-1-0.dll
 0001:0001cd6a       __register_onexit_function 1001dd6a f   ucrt:api-ms-win-crt-runtime-l1-1-0.dll
 0001:0001cd70       __execute_onexit_table     1001dd70 f   ucrt:api-ms-win-crt-runtime-l1-1-0.dll
 0001:0001cd76       __crt_atexit               1001dd76 f   ucrt:api-ms-win-crt-runtime-l1-1-0.dll
 0001:0001cd7c       __cexit                    1001dd7c f   ucrt:api-ms-win-crt-runtime-l1-1-0.dll
 0001:0001cd82       _terminate                 1001dd82 f   ucrt:api-ms-win-crt-runtime-l1-1-0.dll
 0001:0001cd88       __initterm                 1001dd88 f   ucrt:api-ms-win-crt-runtime-l1-1-0.dll
 0001:0001cd8e       __initterm_e               1001dd8e f   ucrt:api-ms-win-crt-runtime-l1-1-0.dll
 0001:0001cd94       ?Delete@CException@@QAEXXZ 1001dd94 f   mfc140:mfc140.dll
 0001:0001cd9a       ??3CNoTrackObject@@SGXPAX@Z 1001dd9a f   mfc140:mfc140.dll
 0001:0001cda0       ??0AFX_MODULE_STATE@@QAE@HP6GJPAUHWND__@@IIJ@ZKH@Z 1001dda0 f   mfc140:mfc140.dll
 0001:0001cda6       ??1AFX_MODULE_STATE@@UAE@XZ 1001dda6 f   mfc140:mfc140.dll
 0001:0001cdac       ?AfxSetModuleState@@YGPAVAFX_MODULE_STATE@@PAV1@@Z 1001ddac f   mfc140:mfc140.dll
 0001:0001cdb2       ?AfxGetModuleState@@YGPAVAFX_MODULE_STATE@@XZ 1001ddb2 f   mfc140:mfc140.dll
 0001:0001cdb8       ?AfxWinInit@@YGHPAUHINSTANCE__@@0PADH@Z 1001ddb8 f   mfc140:mfc140.dll
 0001:0001cdbe       ?AfxWndProc@@YGJPAUHWND__@@IIJ@Z 1001ddbe f   mfc140:mfc140.dll
 0001:0001cdc4       ?AfxTermThread@@YGXPAUHINSTANCE__@@@Z 1001ddc4 f   mfc140:mfc140.dll
 0001:0001cdca       ?AfxWinTerm@@YGXXZ         1001ddca f   mfc140:mfc140.dll
 0001:0001cdd0       ??0CDynLinkLibrary@@QAE@AAUAFX_EXTENSION_MODULE@@H@Z 1001ddd0 f   mfc140:mfc140.dll
 0001:0001cdd6       ?AfxInitExtensionModule@@YGHAAUAFX_EXTENSION_MODULE@@PAUHINSTANCE__@@@Z 1001ddd6 f   mfc140:mfc140.dll
 0001:0001cddc       ?AfxTermExtensionModule@@YGXAAUAFX_EXTENSION_MODULE@@H@Z 1001dddc f   mfc140:mfc140.dll
 0001:0001cde2       ?AfxCoreInitModule@@YGXXZ  1001dde2 f   mfc140:mfc140.dll
 0001:0001cde8       ?AfxLockTempMaps@@YGXXZ    1001dde8 f   mfc140:mfc140.dll
 0001:0001cdee       ?AfxUnlockTempMaps@@YGHH@Z 1001ddee f   mfc140:mfc140.dll
 0001:0001cdf4       __RawDllMainProxy@12       1001ddf4 f   mfcs140:rawdllmainproxy.obj
 0001:0001cf0e       ___acrt_initialize         1001df0e f   msvcrt:ucrt_stubs.obj
 0001:0001cf0e       ___vcrt_thread_detach      1001df0e f   msvcrt:ucrt_stubs.obj
 0001:0001cf0e       ___scrt_stub_for_acrt_uninitialize_critical 1001df0e f   msvcrt:ucrt_stubs.obj
 0001:0001cf0e       ___vcrt_initialize         1001df0e f   msvcrt:ucrt_stubs.obj
 0001:0001cf0e       ___vcrt_thread_attach      1001df0e f   msvcrt:ucrt_stubs.obj
 0001:0001cf0e       ___scrt_stub_for_acrt_initialize 1001df0e f   msvcrt:ucrt_stubs.obj
 0001:0001cf0e       ___vcrt_uninitialize_critical 1001df0e f   msvcrt:ucrt_stubs.obj
 0001:0001cf0e       ___vcrt_uninitialize       1001df0e f   msvcrt:ucrt_stubs.obj
 0001:0001cf0e       ___scrt_stub_for_acrt_uninitialize 1001df0e f   msvcrt:ucrt_stubs.obj
 0001:0001cf0e       ___acrt_uninitialize_critical 1001df0e f   msvcrt:ucrt_stubs.obj
 0001:0001cf0e       ___acrt_thread_detach      1001df0e f   msvcrt:ucrt_stubs.obj
 0001:0001cf0e       ___acrt_uninitialize       1001df0e f   msvcrt:ucrt_stubs.obj
 0001:0001cf0e       ___scrt_stub_for_acrt_thread_detach 1001df0e f   msvcrt:ucrt_stubs.obj
 0001:0001cf0e       ___acrt_thread_attach      1001df0e f   msvcrt:ucrt_stubs.obj
 0001:0001cf0e       ___scrt_stub_for_acrt_thread_attach 1001df0e f   msvcrt:ucrt_stubs.obj
 0001:0001cf11       ___scrt_stub_for_is_c_termination_complete 1001df11 f   msvcrt:ucrt_stubs.obj
 0001:0001cf11       __is_c_termination_complete 1001df11 f   msvcrt:ucrt_stubs.obj
 0001:0001cf14       __filter_x86_sse2_floating_point_exception 1001df14 f   msvcrt:x86_exception_filter.obj
 0001:0001cf14       __filter_x86_sse2_floating_point_exception_default 1001df14 f   msvcrt:x86_exception_filter.obj
 0002:00000000       __imp__OutputDebugStringW@4 10022000     kernel32:KERNEL32.dll
 0002:00000004       __imp__GetLastError@0      10022004     kernel32:KERNEL32.dll
 0002:00000008       __imp__EnterCriticalSection@4 10022008     kernel32:KERNEL32.dll
 0002:0000000c       __imp__LeaveCriticalSection@4 1002200c     kernel32:KERNEL32.dll
 0002:00000010       __imp__InitializeCriticalSectionAndSpinCount@8 10022010     kernel32:KERNEL32.dll
 0002:00000014       __imp__DeleteCriticalSection@4 10022014     kernel32:KERNEL32.dll
 0002:00000018       __imp__GetProcAddress@8    10022018     kernel32:KERNEL32.dll
 0002:0000001c       __imp__LoadLibraryA@4      1002201c     kernel32:KERNEL32.dll
 0002:00000020       __imp__GetPrivateProfileIntA@16 10022020     kernel32:KERNEL32.dll
 0002:00000024       __imp__GetLocalTime@4      10022024     kernel32:KERNEL32.dll
 0002:00000028       __imp__CloseHandle@4       10022028     kernel32:KERNEL32.dll
 0002:0000002c       __imp__InitializeCriticalSection@4 1002202c     kernel32:KERNEL32.dll
 0002:00000030       __imp__MapViewOfFile@20    10022030     kernel32:KERNEL32.dll
 0002:00000034       __imp__UnmapViewOfFile@4   10022034     kernel32:KERNEL32.dll
 0002:00000038       __imp__CreateFileMappingA@24 10022038     kernel32:KERNEL32.dll
 0002:0000003c       __imp__OpenFileMappingA@12 1002203c     kernel32:KERNEL32.dll
 0002:00000040       __imp__InitializeCriticalSectionEx@12 10022040     kernel32:KERNEL32.dll
 0002:00000044       __imp__GetModuleHandleW@4  10022044     kernel32:KERNEL32.dll
 0002:00000048       __imp__LocalAlloc@8        10022048     kernel32:KERNEL32.dll
 0002:0000004c       __imp__LocalFree@4         1002204c     kernel32:KERNEL32.dll
 0002:00000050       __imp__CreateEventW@16     10022050     kernel32:KERNEL32.dll
 0002:00000054       __imp__IsProcessorFeaturePresent@4 10022054     kernel32:KERNEL32.dll
 0002:00000058       __imp__IsDebuggerPresent@0 10022058     kernel32:KERNEL32.dll
 0002:0000005c       __imp__UnhandledExceptionFilter@4 1002205c     kernel32:KERNEL32.dll
 0002:00000060       __imp__SetUnhandledExceptionFilter@4 10022060     kernel32:KERNEL32.dll
 0002:00000064       __imp__GetCurrentProcess@0 10022064     kernel32:KERNEL32.dll
 0002:00000068       __imp__InitializeSListHead@4 10022068     kernel32:KERNEL32.dll
 0002:0000006c       __imp__GetSystemTimeAsFileTime@4 1002206c     kernel32:KERNEL32.dll
 0002:00000070       __imp__GetCurrentThreadId@0 10022070     kernel32:KERNEL32.dll
 0002:00000074       __imp__GetCurrentProcessId@0 10022074     kernel32:KERNEL32.dll
 0002:00000078       __imp__QueryPerformanceCounter@4 10022078     kernel32:KERNEL32.dll
 0002:0000007c       __imp__TerminateProcess@8  1002207c     kernel32:KERNEL32.dll
 0002:00000080       __imp__OutputDebugStringA@4 10022080     kernel32:KERNEL32.dll
 0002:00000084       \177KERNEL32_NULL_THUNK_DATA 10022084     kernel32:KERNEL32.dll
 0002:00000088       __imp_?_Xlength_error@std@@YAXPBD@Z 10022088     msvcprt:MSVCP140.dll
 0002:0000008c       \177MSVCP140_NULL_THUNK_DATA 1002208c     msvcprt:MSVCP140.dll
 0002:00000090       __imp__OffsetRect@12       10022090     user32:USER32.dll
 0002:00000094       __imp__IsWindow@4          10022094     user32:USER32.dll
 0002:00000098       __imp__GetClientRect@8     10022098     user32:USER32.dll
 0002:0000009c       __imp__GetSystemMetrics@4  1002209c     user32:USER32.dll
 0002:000000a0       __imp__EnableWindow@8      100220a0     user32:USER32.dll
 0002:000000a4       __imp__GetSysColor@4       100220a4     user32:USER32.dll
 0002:000000a8       __imp__SendMessageA@16     100220a8     user32:USER32.dll
 0002:000000ac       \177USER32_NULL_THUNK_DATA 100220ac     user32:USER32.dll
 0002:000000b0       __imp__memcpy              100220b0     vcruntime:VCRUNTIME140.dll
 0002:000000b4       __imp__memset              100220b4     vcruntime:VCRUNTIME140.dll
 0002:000000b8       __imp____std_exception_copy 100220b8     vcruntime:VCRUNTIME140.dll
 0002:000000bc       __imp____std_exception_destroy 100220bc     vcruntime:VCRUNTIME140.dll
 0002:000000c0       __imp___CxxThrowException@8 100220c0     vcruntime:VCRUNTIME140.dll
 0002:000000c4       __imp____current_exception 100220c4     vcruntime:VCRUNTIME140.dll
 0002:000000c8       __imp____current_exception_context 100220c8     vcruntime:VCRUNTIME140.dll
 0002:000000cc       __imp___except_handler4_common 100220cc     vcruntime:VCRUNTIME140.dll
 0002:000000d0       __imp____std_type_info_destroy_list 100220d0     vcruntime:VCRUNTIME140.dll
 0002:000000d4       __imp____CxxFrameHandler3  100220d4     vcruntime:VCRUNTIME140.dll
 0002:000000d8       \177VCRUNTIME140_NULL_THUNK_DATA 100220d8     vcruntime:VCRUNTIME140.dll
 0002:000000dc       __imp__atol                100220dc     ucrt:api-ms-win-crt-convert-l1-1-0.dll
 0002:000000e0       __imp__atof                100220e0     ucrt:api-ms-win-crt-convert-l1-1-0.dll
 0002:000000e4       __imp__atoi                100220e4     ucrt:api-ms-win-crt-convert-l1-1-0.dll
 0002:000000e8       \177api-ms-win-crt-convert-l1-1-0_NULL_THUNK_DATA 100220e8     ucrt:api-ms-win-crt-convert-l1-1-0.dll
 0002:000000ec       __imp__free                100220ec     ucrt:api-ms-win-crt-heap-l1-1-0.dll
 0002:000000f0       \177api-ms-win-crt-heap-l1-1-0_NULL_THUNK_DATA 100220f0     ucrt:api-ms-win-crt-heap-l1-1-0.dll
 0002:000000f4       __imp__fabs                100220f4     ucrt:api-ms-win-crt-math-l1-1-0.dll
 0002:000000f8       \177api-ms-win-crt-math-l1-1-0_NULL_THUNK_DATA 100220f8     ucrt:api-ms-win-crt-math-l1-1-0.dll
 0002:000000fc       __imp___mbsupr             100220fc     ucrt:api-ms-win-crt-multibyte-l1-1-0.dll
 0002:00000100       \177api-ms-win-crt-multibyte-l1-1-0_NULL_THUNK_DATA 10022100     ucrt:api-ms-win-crt-multibyte-l1-1-0.dll
 0002:00000104       __imp___seh_filter_dll     10022104     ucrt:api-ms-win-crt-runtime-l1-1-0.dll
 0002:00000108       __imp___initterm_e         10022108     ucrt:api-ms-win-crt-runtime-l1-1-0.dll
 0002:0000010c       __imp___initterm           1002210c     ucrt:api-ms-win-crt-runtime-l1-1-0.dll
 0002:00000110       __imp__terminate           10022110     ucrt:api-ms-win-crt-runtime-l1-1-0.dll
 0002:00000114       __imp___cexit              10022114     ucrt:api-ms-win-crt-runtime-l1-1-0.dll
 0002:00000118       __imp___crt_atexit         10022118     ucrt:api-ms-win-crt-runtime-l1-1-0.dll
 0002:0000011c       __imp___execute_onexit_table 1002211c     ucrt:api-ms-win-crt-runtime-l1-1-0.dll
 0002:00000120       __imp___register_onexit_function 10022120     ucrt:api-ms-win-crt-runtime-l1-1-0.dll
 0002:00000124       __imp___initialize_onexit_table 10022124     ucrt:api-ms-win-crt-runtime-l1-1-0.dll
 0002:00000128       __imp___initialize_narrow_environment 10022128     ucrt:api-ms-win-crt-runtime-l1-1-0.dll
 0002:0000012c       __imp___configure_narrow_argv 1002212c     ucrt:api-ms-win-crt-runtime-l1-1-0.dll
 0002:00000130       __imp___invalid_parameter_noinfo_noreturn 10022130     ucrt:api-ms-win-crt-runtime-l1-1-0.dll
 0002:00000134       \177api-ms-win-crt-runtime-l1-1-0_NULL_THUNK_DATA 10022134     ucrt:api-ms-win-crt-runtime-l1-1-0.dll
 0002:00000138       __imp__strcpy              10022138     ucrt:api-ms-win-crt-string-l1-1-0.dll
 0002:0000013c       __imp___strdup             1002213c     ucrt:api-ms-win-crt-string-l1-1-0.dll
 0002:00000140       __imp__strlen              10022140     ucrt:api-ms-win-crt-string-l1-1-0.dll
 0002:00000144       __imp__strncpy             10022144     ucrt:api-ms-win-crt-string-l1-1-0.dll
 0002:00000148       \177api-ms-win-crt-string-l1-1-0_NULL_THUNK_DATA 10022148     ucrt:api-ms-win-crt-string-l1-1-0.dll
 0002:0000014c       __imp___time64             1002214c     ucrt:api-ms-win-crt-time-l1-1-0.dll
 0002:00000150       __imp___localtime64_s      10022150     ucrt:api-ms-win-crt-time-l1-1-0.dll
 0002:00000154       \177api-ms-win-crt-time-l1-1-0_NULL_THUNK_DATA 10022154     ucrt:api-ms-win-crt-time-l1-1-0.dll
 0002:00000158       __imp__ldiv                10022158     ucrt:api-ms-win-crt-utility-l1-1-0.dll
 0002:0000015c       \177api-ms-win-crt-utility-l1-1-0_NULL_THUNK_DATA 1002215c     ucrt:api-ms-win-crt-utility-l1-1-0.dll
 0002:00000160       __imp_?Lookup@CMapStringToString@@QBEHPBDAAV?$CStringT@DV?$StrTraitMFC_DLL@DV?$ChTraitsCRT@D@ATL@@@@@ATL@@@Z 10022160     mfc140:mfc140.dll
 0002:00000164       __imp_??ACMapStringToString@@QAEAAV?$CStringT@DV?$StrTraitMFC_DLL@DV?$ChTraitsCRT@D@ATL@@@@@ATL@@PBD@Z 10022164     mfc140:mfc140.dll
 0002:00000168       __imp_?RemoveKey@CMapStringToString@@QAEHPBD@Z 10022168     mfc140:mfc140.dll
 0002:0000016c       __imp_?RemoveAll@CMapStringToString@@QAEXXZ 1002216c     mfc140:mfc140.dll
 0002:00000170       __imp_?GetNextAssoc@CMapStringToString@@QBEXAAPAU__POSITION@@AAV?$CStringT@DV?$StrTraitMFC_DLL@DV?$ChTraitsCRT@D@ATL@@@@@ATL@@1@Z 10022170     mfc140:mfc140.dll
 0002:00000174       __imp_??1CMapStringToString@@UAE@XZ 10022174     mfc140:mfc140.dll
 0002:00000178       __imp_?GetClipBox@CDC@@UBEHPAUtagRECT@@@Z 10022178     mfc140:mfc140.dll
 0002:0000017c       __imp_?FillSolidRect@CDC@@QAEXPBUtagRECT@@K@Z 1002217c     mfc140:mfc140.dll
 0002:00000180       __imp_??0CPaintDC@@QAE@PAVCWnd@@@Z 10022180     mfc140:mfc140.dll
 0002:00000184       __imp_??1CPaintDC@@UAE@XZ  10022184     mfc140:mfc140.dll
 0002:00000188       __imp_?GetRuntimeClass@CWnd@@UBEPAUCRuntimeClass@@XZ 10022188     mfc140:mfc140.dll
 0002:0000018c       __imp_??0CWnd@@QAE@XZ      1002218c     mfc140:mfc140.dll
 0002:00000190       __imp_?PreSubclassWindow@CWnd@@UAEXXZ 10022190     mfc140:mfc140.dll
 0002:00000194       __imp_?Create@CWnd@@UAEHPBD0KABUtagRECT@@PAV1@IPAUCCreateContext@@@Z 10022194     mfc140:mfc140.dll
 0002:00000198       __imp_?CreateEx@CWnd@@UAEHKPBD0KHHHHPAUHWND__@@PAUHMENU__@@PAX@Z 10022198     mfc140:mfc140.dll
 0002:0000019c       __imp_?CreateEx@CWnd@@UAEHKPBD0KABUtagRECT@@PAV1@IPAX@Z 1002219c     mfc140:mfc140.dll
 0002:000001a0       __imp_?DestroyWindow@CWnd@@UAEHXZ 100221a0     mfc140:mfc140.dll
 0002:000001a4       __imp_?PreCreateWindow@CWnd@@UAEHAAUtagCREATESTRUCTA@@@Z 100221a4     mfc140:mfc140.dll
 0002:000001a8       __imp_?CalcWindowRect@CWnd@@UAEXPAUtagRECT@@I@Z 100221a8     mfc140:mfc140.dll
 0002:000001ac       __imp_?GetMenu@CWnd@@UBEPAVCMenu@@XZ 100221ac     mfc140:mfc140.dll
 0002:000001b0       __imp_?SetMenu@CWnd@@UAEHPAVCMenu@@@Z 100221b0     mfc140:mfc140.dll
 0002:000001b4       __imp_?SetWindowPos@CWnd@@QAEHPBV1@HHHHI@Z 100221b4     mfc140:mfc140.dll
 0002:000001b8       __imp_?OnToolHitTest@CWnd@@UBEHVCPoint@@PAUtagTOOLINFOA@@@Z 100221b8     mfc140:mfc140.dll
 0002:000001bc       __imp_?GetScrollBarCtrl@CWnd@@UBEPAVCScrollBar@@H@Z 100221bc     mfc140:mfc140.dll
 0002:000001c0       __imp_?MessageBoxA@CWnd@@QAEHPBD0I@Z 100221c0     mfc140:mfc140.dll
 0002:000001c4       __imp_?WinHelpA@CWnd@@UAEXKI@Z 100221c4     mfc140:mfc140.dll
 0002:000001c8       __imp_?HtmlHelpA@CWnd@@UAEXKI@Z 100221c8     mfc140:mfc140.dll
 0002:000001cc       __imp_?WinHelpInternal@CWnd@@UAEXKI@Z 100221cc     mfc140:mfc140.dll
 0002:000001d0       __imp_?ContinueModal@CWnd@@UAEHXZ 100221d0     mfc140:mfc140.dll
 0002:000001d4       __imp_?EndModalLoop@CWnd@@UAEXH@Z 100221d4     mfc140:mfc140.dll
 0002:000001d8       __imp_?OnDrawIconicThumbnailOrLivePreview@CWnd@@UAEXAAVCDC@@VCRect@@VCSize@@HAAH@Z 100221d8     mfc140:mfc140.dll
 0002:000001dc       __imp_?GetInterfaceMap@CWnd@@MBEPBUAFX_INTERFACEMAP@@XZ 100221dc     mfc140:mfc140.dll
 0002:000001e0       __imp_?EnsureStdObj@CWnd@@UAEJXZ 100221e0     mfc140:mfc140.dll
 0002:000001e4       __imp_?get_accParent@CWnd@@UAEJPAPAUIDispatch@@@Z 100221e4     mfc140:mfc140.dll
 0002:000001e8       __imp_?get_accChildCount@CWnd@@UAEJPAJ@Z 100221e8     mfc140:mfc140.dll
 0002:000001ec       __imp_?get_accChild@CWnd@@UAEJUtagVARIANT@@PAPAUIDispatch@@@Z 100221ec     mfc140:mfc140.dll
 0002:000001f0       __imp_?get_accName@CWnd@@UAEJUtagVARIANT@@PAPA_W@Z 100221f0     mfc140:mfc140.dll
 0002:000001f4       __imp_?get_accValue@CWnd@@UAEJUtagVARIANT@@PAPA_W@Z 100221f4     mfc140:mfc140.dll
 0002:000001f8       __imp_?get_accDescription@CWnd@@UAEJUtagVARIANT@@PAPA_W@Z 100221f8     mfc140:mfc140.dll
 0002:000001fc       __imp_?get_accRole@CWnd@@UAEJUtagVARIANT@@PAU2@@Z 100221fc     mfc140:mfc140.dll
 0002:00000200       __imp_?get_accState@CWnd@@UAEJUtagVARIANT@@PAU2@@Z 10022200     mfc140:mfc140.dll
 0002:00000204       __imp_?get_accHelp@CWnd@@UAEJUtagVARIANT@@PAPA_W@Z 10022204     mfc140:mfc140.dll
 0002:00000208       __imp_?get_accHelpTopic@CWnd@@UAEJPAPA_WUtagVARIANT@@PAJ@Z 10022208     mfc140:mfc140.dll
 0002:0000020c       __imp_?get_accKeyboardShortcut@CWnd@@UAEJUtagVARIANT@@PAPA_W@Z 1002220c     mfc140:mfc140.dll
 0002:00000210       __imp_?get_accFocus@CWnd@@UAEJPAUtagVARIANT@@@Z 10022210     mfc140:mfc140.dll
 0002:00000214       __imp_?get_accSelection@CWnd@@UAEJPAUtagVARIANT@@@Z 10022214     mfc140:mfc140.dll
 0002:00000218       __imp_?get_accDefaultAction@CWnd@@UAEJUtagVARIANT@@PAPA_W@Z 10022218     mfc140:mfc140.dll
 0002:0000021c       __imp_?accSelect@CWnd@@UAEJJUtagVARIANT@@@Z 1002221c     mfc140:mfc140.dll
 0002:00000220       __imp_?accLocation@CWnd@@UAEJPAJ000UtagVARIANT@@@Z 10022220     mfc140:mfc140.dll
 0002:00000224       __imp_?accNavigate@CWnd@@UAEJJUtagVARIANT@@PAU2@@Z 10022224     mfc140:mfc140.dll
 0002:00000228       __imp_?accHitTest@CWnd@@UAEJJJPAUtagVARIANT@@@Z 10022228     mfc140:mfc140.dll
 0002:0000022c       __imp_?accDoDefaultAction@CWnd@@UAEJUtagVARIANT@@@Z 1002222c     mfc140:mfc140.dll
 0002:00000230       __imp_?put_accName@CWnd@@UAEJUtagVARIANT@@PA_W@Z 10022230     mfc140:mfc140.dll
 0002:00000234       __imp_?put_accValue@CWnd@@UAEJUtagVARIANT@@PA_W@Z 10022234     mfc140:mfc140.dll
 0002:00000238       __imp_?Insert@?$CStringT@DV?$StrTraitMFC_DLL@DV?$ChTraitsCRT@D@ATL@@@@@ATL@@QAEHHPBD@Z 10022238     mfc140:mfc140.dll
 0002:0000023c       __imp_?CreateAccessibleProxy@CWnd@@UAEJIJPAJ@Z 1002223c     mfc140:mfc140.dll
 0002:00000240       __imp_?OnCommand@CWnd@@MAEHIJ@Z 10022240     mfc140:mfc140.dll
 0002:00000244       __imp_?OnNotify@CWnd@@MAEHIJPAJ@Z 10022244     mfc140:mfc140.dll
 0002:00000248       __imp_?OnDestroy@CWnd@@IAEXXZ 10022248     mfc140:mfc140.dll
 0002:0000024c       __imp_?GetSuperWndProcAddr@CWnd@@MAEPAP6GJPAUHWND__@@IIJ@ZXZ 1002224c     mfc140:mfc140.dll
 0002:00000250       __imp_?PreTranslateMessage@CWnd@@UAEHPAUtagMSG@@@Z 10022250     mfc140:mfc140.dll
 0002:00000254       __imp_?OnAmbientProperty@CWnd@@UAEHPAVCOleControlSite@@JPAUtagVARIANT@@@Z 10022254     mfc140:mfc140.dll
 0002:00000258       __imp_?WindowProc@CWnd@@MAEJIIJ@Z 10022258     mfc140:mfc140.dll
 0002:0000025c       __imp_?OnWndMsg@CWnd@@MAEHIIJPAJ@Z 1002225c     mfc140:mfc140.dll
 0002:00000260       __imp_?Default@CWnd@@IAEJXZ 10022260     mfc140:mfc140.dll
 0002:00000264       __imp_?DefWindowProcA@CWnd@@MAEJIIJ@Z 10022264     mfc140:mfc140.dll
 0002:00000268       __imp_?PostNcDestroy@CWnd@@MAEXXZ 10022268     mfc140:mfc140.dll
 0002:0000026c       __imp_?OnChildNotify@CWnd@@MAEHIIJPAJ@Z 1002226c     mfc140:mfc140.dll
 0002:00000270       __imp_?OnTouchInputs@CWnd@@MAEHIPAUtagTOUCHINPUT@@@Z 10022270     mfc140:mfc140.dll
 0002:00000274       __imp_?OnTouchInput@CWnd@@MAEHVCPoint@@HHPAUtagTOUCHINPUT@@@Z 10022274     mfc140:mfc140.dll
 0002:00000278       __imp_?GetGestureStatus@CWnd@@MAEKVCPoint@@@Z 10022278     mfc140:mfc140.dll
 0002:0000027c       __imp_?OnGestureZoom@CWnd@@MAEHVCPoint@@J@Z 1002227c     mfc140:mfc140.dll
 0002:00000280       __imp_?OnGesturePan@CWnd@@MAEHVCPoint@@0@Z 10022280     mfc140:mfc140.dll
 0002:00000284       __imp_?OnGestureRotate@CWnd@@MAEHVCPoint@@N@Z 10022284     mfc140:mfc140.dll
 0002:00000288       __imp_?OnGestureTwoFingerTap@CWnd@@MAEHVCPoint@@@Z 10022288     mfc140:mfc140.dll
 0002:0000028c       __imp_?OnGesturePressAndTap@CWnd@@MAEHVCPoint@@J@Z 1002228c     mfc140:mfc140.dll
 0002:00000290       __imp_?ResizeDynamicLayout@CWnd@@MAEXXZ 10022290     mfc140:mfc140.dll
 0002:00000294       __imp_??1CWnd@@UAE@XZ      10022294     mfc140:mfc140.dll
 0002:00000298       __imp_?CheckAutoCenter@CWnd@@UAEHXZ 10022298     mfc140:mfc140.dll
 0002:0000029c       __imp_?IsFrameWnd@CWnd@@UBEHXZ 1002229c     mfc140:mfc140.dll
 0002:000002a0       __imp_?OnFinalRelease@CWnd@@UAEXXZ 100222a0     mfc140:mfc140.dll
 0002:000002a4       __imp_?CreateControlContainer@CWnd@@MAEHPAPAVCOleControlContainer@@@Z 100222a4     mfc140:mfc140.dll
 0002:000002a8       __imp_?CreateControlSite@CWnd@@MAEHPAVCOleControlContainer@@PAPAVCOleControlSite@@IABU_GUID@@@Z 100222a8     mfc140:mfc140.dll
 0002:000002ac       __imp_?SetOccDialogInfo@CWnd@@MAEHPAU_AFX_OCC_DIALOG_INFO@@@Z 100222ac     mfc140:mfc140.dll
 0002:000002b0       __imp_?GetOccDialogInfo@CWnd@@MAEPAU_AFX_OCC_DIALOG_INFO@@XZ 100222b0     mfc140:mfc140.dll
 0002:000002b4       __imp_?GetThisMessageMap@CWnd@@KGPBUAFX_MSGMAP@@XZ 100222b4     mfc140:mfc140.dll
 0002:000002b8       __imp_??0CSyncObject@@QAE@PBD@Z 100222b8     mfc140:mfc140.dll
 0002:000002bc       __imp_??1CSyncObject@@UAE@XZ 100222bc     mfc140:mfc140.dll
 0002:000002c0       __imp_?GetRuntimeClass@CCriticalSection@@UBEPAUCRuntimeClass@@XZ 100222c0     mfc140:mfc140.dll
 0002:000002c4       __imp_?AfxThrowArchiveException@@YGXHPBD@Z 100222c4     mfc140:mfc140.dll
 0002:000002c8       __imp_?GetRuntimeClass@CObject@@UBEPAUCRuntimeClass@@XZ 100222c8     mfc140:mfc140.dll
 0002:000002cc       __imp_?FindOneOf@?$CStringT@DV?$StrTraitMFC_DLL@DV?$ChTraitsCRT@D@ATL@@@@@ATL@@QBEHPBD@Z 100222cc     mfc140:mfc140.dll
 0002:000002d0       __imp_??0CStdioFile@@QAE@XZ 100222d0     mfc140:mfc140.dll
 0002:000002d4       __imp_?WriteString@CStdioFile@@UAEXPBD@Z 100222d4     mfc140:mfc140.dll
 0002:000002d8       __imp_??1CStdioFile@@UAE@XZ 100222d8     mfc140:mfc140.dll
 0002:000002dc       __imp_?Open@CStdioFile@@UAEHPBDIPAVCFileException@@@Z 100222dc     mfc140:mfc140.dll
 0002:000002e0       __imp_?Write@CStdioFile@@UAEXPBXI@Z 100222e0     mfc140:mfc140.dll
 0002:000002e4       __imp_?Close@CStdioFile@@UAEXXZ 100222e4     mfc140:mfc140.dll
 0002:000002e8       __imp_??0CMapStringToString@@QAE@H@Z 100222e8     mfc140:mfc140.dll
 0002:000002ec       __imp_?Write@CArchive@@QAEXPBXI@Z 100222ec     mfc140:mfc140.dll
 0002:000002f0       __imp_?ReadCount@CArchive@@QAEKXZ 100222f0     mfc140:mfc140.dll
 0002:000002f4       __imp_?WriteCount@CArchive@@QAEXK@Z 100222f4     mfc140:mfc140.dll
 0002:000002f8       __imp_?Create@CPlex@@SGPAU1@AAPAU1@II@Z 100222f8     mfc140:mfc140.dll
 0002:000002fc       __imp_?FreeDataChain@CPlex@@QAEXXZ 100222fc     mfc140:mfc140.dll
 0002:00000300       __imp_??$SerializeElements@V?$CStringT@DV?$StrTraitMFC_DLL@DV?$ChTraitsCRT@D@ATL@@@@@ATL@@@@YGXAAVCArchive@@PAV?$CStringT@DV?$StrTraitMFC_DLL@DV?$ChTraitsCRT@D@ATL@@@@@ATL@@H@Z 10022300     mfc140:mfc140.dll
 0002:00000304       __imp_?SetAt@?$CSimpleStringT@D$00@ATL@@QAEXHD@Z 10022304     mfc140:mfc140.dll
 0002:00000308       __imp_??0?$CStringT@DV?$StrTraitMFC_DLL@DV?$ChTraitsCRT@D@ATL@@@@@ATL@@QAE@DH@Z 10022308     mfc140:mfc140.dll
 0002:0000030c       __imp_?AfxMessageBox@@YGHPBDII@Z 1002230c     mfc140:mfc140.dll
 0002:00000310       __imp_?Compare@?$CStringT@DV?$StrTraitMFC_DLL@DV?$ChTraitsCRT@D@ATL@@@@@ATL@@QBEHPBD@Z 10022310     mfc140:mfc140.dll
 0002:00000314       __imp_?GetManager@?$CStringT@DV?$StrTraitMFC_DLL@DV?$ChTraitsCRT@D@ATL@@@@@ATL@@QBEPAUIAtlStringMgr@2@XZ 10022314     mfc140:mfc140.dll
 0002:00000318       __imp_??Y?$CStringT@DV?$StrTraitMFC_DLL@DV?$ChTraitsCRT@D@ATL@@@@@ATL@@QAEAAV01@D@Z 10022318     mfc140:mfc140.dll
 0002:0000031c       __imp_??Y?$CStringT@DV?$StrTraitMFC_DLL@DV?$ChTraitsCRT@D@ATL@@@@@ATL@@QAEAAV01@ABV?$CSimpleStringT@D$00@1@@Z 1002231c     mfc140:mfc140.dll
 0002:00000320       __imp_??4?$CStringT@DV?$StrTraitMFC_DLL@DV?$ChTraitsCRT@D@ATL@@@@@ATL@@QAEAAV01@D@Z 10022320     mfc140:mfc140.dll
 0002:00000324       __imp_??4?$CStringT@DV?$StrTraitMFC_DLL@DV?$ChTraitsCRT@D@ATL@@@@@ATL@@QAEAAV01@PBD@Z 10022324     mfc140:mfc140.dll
 0002:00000328       __imp_??4?$CStringT@DV?$StrTraitMFC_DLL@DV?$ChTraitsCRT@D@ATL@@@@@ATL@@QAEAAV01@ABV01@@Z 10022328     mfc140:mfc140.dll
 0002:0000032c       __imp_??1?$CStringT@DV?$StrTraitMFC_DLL@DV?$ChTraitsCRT@D@ATL@@@@@ATL@@QAE@XZ 1002232c     mfc140:mfc140.dll
 0002:00000330       __imp_??0?$CStringT@DV?$StrTraitMFC_DLL@DV?$ChTraitsCRT@D@ATL@@@@@ATL@@QAE@PBDH@Z 10022330     mfc140:mfc140.dll
 0002:00000334       __imp_??0?$CStringT@DV?$StrTraitMFC_DLL@DV?$ChTraitsCRT@D@ATL@@@@@ATL@@QAE@PBD@Z 10022334     mfc140:mfc140.dll
 0002:00000338       __imp_??0?$CStringT@DV?$StrTraitMFC_DLL@DV?$ChTraitsCRT@D@ATL@@@@@ATL@@QAE@ABV01@@Z 10022338     mfc140:mfc140.dll
 0002:0000033c       __imp_??0?$CStringT@DV?$StrTraitMFC_DLL@DV?$ChTraitsCRT@D@ATL@@@@@ATL@@QAE@PAUIAtlStringMgr@1@@Z 1002233c     mfc140:mfc140.dll
 0002:00000340       __imp_??0?$CStringT@DV?$StrTraitMFC_DLL@DV?$ChTraitsCRT@D@ATL@@@@@ATL@@QAE@XZ 10022340     mfc140:mfc140.dll
 0002:00000344       __imp_?Concatenate@?$CSimpleStringT@D$00@ATL@@KAXAAV12@PBDH1H@Z 10022344     mfc140:mfc140.dll
 0002:00000348       __imp_?StringLength@?$CSimpleStringT@D$00@ATL@@SAHPBD@Z 10022348     mfc140:mfc140.dll
 0002:0000034c       __imp_?IsEmpty@?$CSimpleStringT@D$00@ATL@@QBE_NXZ 1002234c     mfc140:mfc140.dll
 0002:00000350       __imp_?GetLength@?$CSimpleStringT@D$00@ATL@@QBEHXZ 10022350     mfc140:mfc140.dll
 0002:00000354       __imp_?GetBuffer@?$CSimpleStringT@D$00@ATL@@QAEPADH@Z 10022354     mfc140:mfc140.dll
 0002:00000358       __imp_?GetAt@?$CSimpleStringT@D$00@ATL@@QBEDH@Z 10022358     mfc140:mfc140.dll
 0002:0000035c       __imp_?Empty@?$CSimpleStringT@D$00@ATL@@QAEXXZ 1002235c     mfc140:mfc140.dll
 0002:00000360       __imp_??B?$CSimpleStringT@D$00@ATL@@QBEPBDXZ 10022360     mfc140:mfc140.dll
 0002:00000364       __imp_??A?$CSimpleStringT@D$00@ATL@@QBEDH@Z 10022364     mfc140:mfc140.dll
 0002:00000368       __imp_?AfxThrowOleException@@YGXJ@Z 10022368     mfc140:mfc140.dll
 0002:0000036c       __imp_?AfxThrowInvalidArgException@@YGXXZ 1002236c     mfc140:mfc140.dll
 0002:00000370       __imp_?AfxThrowMemoryException@@YGXXZ 10022370     mfc140:mfc140.dll
 0002:00000374       __imp_??_V@YAXPAX@Z        10022374     mfc140:mfc140.dll
 0002:00000378       __imp_??_U@YAPAXI@Z        10022378     mfc140:mfc140.dll
 0002:0000037c       __imp_??1AFX_MAINTAIN_STATE2@@QAE@XZ 1002237c     mfc140:mfc140.dll
 0002:00000380       __imp_??0AFX_MAINTAIN_STATE2@@QAE@PAVAFX_MODULE_STATE@@@Z 10022380     mfc140:mfc140.dll
 0002:00000384       __imp_??2@YAPAXI@Z         10022384     mfc140:mfc140.dll
 0002:00000388       __imp_?LoadSysPolicies@CWinApp@@UAEHXZ 10022388     mfc140:mfc140.dll
 0002:0000038c       __imp_?GetThisMessageMap@CWinApp@@KGPBUAFX_MSGMAP@@XZ 1002238c     mfc140:mfc140.dll
 0002:00000390       __imp_??1CWinApp@@UAE@XZ   10022390     mfc140:mfc140.dll
 0002:00000394       __imp_?LoadAppLangResourceDLL@CWinApp@@UAEPAUHINSTANCE__@@XZ 10022394     mfc140:mfc140.dll
 0002:00000398       __imp_?ProcessWndProcException@CWinApp@@UAEJPAVCException@@PBUtagMSG@@@Z 10022398     mfc140:mfc140.dll
 0002:0000039c       __imp_?OnIdle@CWinApp@@UAEHJ@Z 1002239c     mfc140:mfc140.dll
 0002:000003a0       __imp_?Run@CWinApp@@UAEHXZ 100223a0     mfc140:mfc140.dll
 0002:000003a4       __imp_?RestartInstance@CWinApp@@UAEHXZ 100223a4     mfc140:mfc140.dll
 0002:000003a8       __imp_?ExitInstance@CWinApp@@UAEHXZ 100223a8     mfc140:mfc140.dll
 0002:000003ac       __imp_?InitInstance@CWinApp@@UAEHXZ 100223ac     mfc140:mfc140.dll
 0002:000003b0       __imp_?IsTaskbarInteractionEnabled@CWinApp@@UAEHXZ 100223b0     mfc140:mfc140.dll
 0002:000003b4       __imp_?GetDataRecoveryHandler@CWinApp@@UAEPAVCDataRecoveryHandler@@XZ 100223b4     mfc140:mfc140.dll
 0002:000003b8       __imp_?ApplicationRecoveryCallback@CWinApp@@UAEKPAX@Z 100223b8     mfc140:mfc140.dll
 0002:000003bc       __imp_?RegisterWithRestartManager@CWinApp@@UAEJPB_WKP6GKPAX@Z1KK@Z 100223bc     mfc140:mfc140.dll
 0002:000003c0       __imp_?RegisterWithRestartManager@CWinApp@@UAEJHABV?$CStringT@DV?$StrTraitMFC_DLL@DV?$ChTraitsCRT@D@ATL@@@@@ATL@@@Z 100223c0     mfc140:mfc140.dll
 0002:000003c4       __imp_?WinHelpInternal@CWinApp@@UAEXKI@Z 100223c4     mfc140:mfc140.dll
 0002:000003c8       __imp_?HtmlHelpA@CWinApp@@UAEXKI@Z 100223c8     mfc140:mfc140.dll
 0002:000003cc       __imp_?WinHelpA@CWinApp@@UAEXKI@Z 100223cc     mfc140:mfc140.dll
 0002:000003d0       __imp_?OnDDECommand@CWinApp@@UAEHPAD@Z 100223d0     mfc140:mfc140.dll
 0002:000003d4       __imp_?DoWaitCursor@CWinApp@@UAEXH@Z 100223d4     mfc140:mfc140.dll
 0002:000003d8       __imp_?DoMessageBox@CWinApp@@UAEHPBDII@Z 100223d8     mfc140:mfc140.dll
 0002:000003dc       __imp_?SaveAllModified@CWinApp@@UAEHXZ 100223dc     mfc140:mfc140.dll
 0002:000003e0       __imp_?InitApplication@CWinApp@@UAEHXZ 100223e0     mfc140:mfc140.dll
 0002:000003e4       __imp_?AddToRecentFileList@CWinApp@@UAEXPBD@Z 100223e4     mfc140:mfc140.dll
 0002:000003e8       __imp_?OpenDocumentFile@CWinApp@@UAEPAVCDocument@@PBDH@Z 100223e8     mfc140:mfc140.dll
 0002:000003ec       __imp_?OpenDocumentFile@CWinApp@@UAEPAVCDocument@@PBD@Z 100223ec     mfc140:mfc140.dll
 0002:000003f0       __imp_?Unregister@CWinApp@@UAEHXZ 100223f0     mfc140:mfc140.dll
 0002:000003f4       __imp_?Register@CWinApp@@UAEHXZ 100223f4     mfc140:mfc140.dll
 0002:000003f8       __imp_?InitLibId@CWinApp@@UAEXXZ 100223f8     mfc140:mfc140.dll
 0002:000003fc       __imp_?WriteProfileBinary@CWinApp@@UAEHPBD0PAEI@Z 100223fc     mfc140:mfc140.dll
 0002:00000400       __imp_?GetProfileBinary@CWinApp@@UAEHPBD0PAPAEPAI@Z 10022400     mfc140:mfc140.dll
 0002:00000404       __imp_?WriteProfileStringA@CWinApp@@UAEHPBD00@Z 10022404     mfc140:mfc140.dll
 0002:00000408       __imp_?GetProfileStringA@CWinApp@@UAE?AV?$CStringT@DV?$StrTraitMFC_DLL@DV?$ChTraitsCRT@D@ATL@@@@@ATL@@PBD00@Z 10022408     mfc140:mfc140.dll
 0002:0000040c       __imp_?WriteProfileInt@CWinApp@@UAEHPBD0H@Z 1002240c     mfc140:mfc140.dll
 0002:00000410       __imp_?GetProfileIntA@CWinApp@@UAEIPBD0H@Z 10022410     mfc140:mfc140.dll
 0002:00000414       __imp_??0CWinApp@@QAE@PBD@Z 10022414     mfc140:mfc140.dll
 0002:00000418       __imp_?GetRuntimeClass@CWinApp@@UBEPAUCRuntimeClass@@XZ 10022418     mfc140:mfc140.dll
 0002:0000041c       __imp_?Delete@CWinThread@@UAEXXZ 1002241c     mfc140:mfc140.dll
 0002:00000420       __imp_?GetMainWnd@CWinThread@@UAEPAVCWnd@@XZ 10022420     mfc140:mfc140.dll
 0002:00000424       __imp_?ProcessMessageFilter@CWinThread@@UAEHHPAUtagMSG@@@Z 10022424     mfc140:mfc140.dll
 0002:00000428       __imp_?IsIdleMessage@CWinThread@@UAEHPAUtagMSG@@@Z 10022428     mfc140:mfc140.dll
 0002:0000042c       __imp_?PumpMessage@CWinThread@@UAEHXZ 1002242c     mfc140:mfc140.dll
 0002:00000430       __imp_?PreTranslateMessage@CWinThread@@UAEHPAUtagMSG@@@Z 10022430     mfc140:mfc140.dll
 0002:00000434       __imp_?GetConnectionHook@CCmdTarget@@MAEPAUIConnectionPoint@@ABU_GUID@@@Z 10022434     mfc140:mfc140.dll
 0002:00000438       __imp_?GetExtraConnectionPoints@CCmdTarget@@MAEHPAVCPtrArray@@@Z 10022438     mfc140:mfc140.dll
 0002:0000043c       __imp_?GetInterfaceHook@CCmdTarget@@UAEPAUIUnknown@@PBX@Z 1002243c     mfc140:mfc140.dll
 0002:00000440       __imp_?OnCreateAggregates@CCmdTarget@@UAEHXZ 10022440     mfc140:mfc140.dll
 0002:00000444       __imp_?GetEventSinkMap@CCmdTarget@@MBEPBUAFX_EVENTSINKMAP@@XZ 10022444     mfc140:mfc140.dll
 0002:00000448       __imp_?GetInterfaceMap@CCmdTarget@@MBEPBUAFX_INTERFACEMAP@@XZ 10022448     mfc140:mfc140.dll
 0002:0000044c       __imp_?GetConnectionMap@CCmdTarget@@MBEPBUAFX_CONNECTIONMAP@@XZ 1002244c     mfc140:mfc140.dll
 0002:00000450       __imp_?GetDispatchMap@CCmdTarget@@MBEPBUAFX_DISPMAP@@XZ 10022450     mfc140:mfc140.dll
 0002:00000454       __imp_?GetCommandMap@CCmdTarget@@MBEPBUAFX_OLECMDMAP@@XZ 10022454     mfc140:mfc140.dll
 0002:00000458       __imp_??1CMapStringToPtr@@UAE@XZ 10022458     mfc140:mfc140.dll
 0002:0000045c       __imp_?GetNextAssoc@CMapStringToPtr@@QBEXAAPAU__POSITION@@AAV?$CStringT@DV?$StrTraitMFC_DLL@DV?$ChTraitsCRT@D@ATL@@@@@ATL@@AAPAX@Z 1002245c     mfc140:mfc140.dll
 0002:00000460       __imp_?RemoveAll@CMapStringToPtr@@QAEXXZ 10022460     mfc140:mfc140.dll
 0002:00000464       __imp_?RemoveKey@CMapStringToPtr@@QAEHPBD@Z 10022464     mfc140:mfc140.dll
 0002:00000468       __imp_??ACMapStringToPtr@@QAEAAPAXPBD@Z 10022468     mfc140:mfc140.dll
 0002:0000046c       __imp_?Lookup@CMapStringToPtr@@QBEHPBDAAPAX@Z 1002246c     mfc140:mfc140.dll
 0002:00000470       __imp_?GetTypeLib@CCmdTarget@@UAEJKPAPAUITypeLib@@@Z 10022470     mfc140:mfc140.dll
 0002:00000474       __imp_?GetTypeLibCache@CCmdTarget@@UAEPAVCTypeLibCache@@XZ 10022474     mfc140:mfc140.dll
 0002:00000478       __imp_?GetTypeInfoCount@CCmdTarget@@UAEIXZ 10022478     mfc140:mfc140.dll
 0002:0000047c       __imp_??0CMapStringToPtr@@QAE@H@Z 1002247c     mfc140:mfc140.dll
 0002:00000480       __imp_??1CStringArray@@UAE@XZ 10022480     mfc140:mfc140.dll
 0002:00000484       __imp_?SetAtGrow@CStringArray@@QAEXHABV?$CStringT@DV?$StrTraitMFC_DLL@DV?$ChTraitsCRT@D@ATL@@@@@ATL@@@Z 10022484     mfc140:mfc140.dll
 0002:00000488       __imp_?SetSize@CStringArray@@QAEXHH@Z 10022488     mfc140:mfc140.dll
 0002:0000048c       __imp_??0CStringArray@@QAE@XZ 1002248c     mfc140:mfc140.dll
 0002:00000490       __imp_?GetDispatchIID@CCmdTarget@@UAEHPAU_GUID@@@Z 10022490     mfc140:mfc140.dll
 0002:00000494       __imp_?IsInvokeAllowed@CCmdTarget@@UAEHJ@Z 10022494     mfc140:mfc140.dll
 0002:00000498       __imp_??1CPtrArray@@UAE@XZ 10022498     mfc140:mfc140.dll
 0002:0000049c       __imp_?SetAtGrow@CPtrArray@@QAEXHPAX@Z 1002249c     mfc140:mfc140.dll
 0002:000004a0       __imp_?SetSize@CPtrArray@@QAEXHH@Z 100224a0     mfc140:mfc140.dll
 0002:000004a4       __imp_??0CPtrArray@@QAE@XZ 100224a4     mfc140:mfc140.dll
 0002:000004a8       __imp_??1CFile@@UAE@XZ     100224a8     mfc140:mfc140.dll
 0002:000004ac       __imp_?Close@CFile@@UAEXXZ 100224ac     mfc140:mfc140.dll
 0002:000004b0       __imp_?Read@CFile@@UAEIPAXI@Z 100224b0     mfc140:mfc140.dll
 0002:000004b4       __imp_?GetLength@CFile@@UBE_KXZ 100224b4     mfc140:mfc140.dll
 0002:000004b8       __imp_?Open@CFile@@UAEHPBDIPAVCFileException@@@Z 100224b8     mfc140:mfc140.dll
 0002:000004bc       __imp_??0CFile@@QAE@XZ     100224bc     mfc140:mfc140.dll
 0002:000004c0       __imp_?Format@?$CStringT@DV?$StrTraitMFC_DLL@DV?$ChTraitsCRT@D@ATL@@@@@ATL@@QAAXPBDZZ 100224c0     mfc140:mfc140.dll
 0002:000004c4       __imp_?Left@?$CStringT@DV?$StrTraitMFC_DLL@DV?$ChTraitsCRT@D@ATL@@@@@ATL@@QBE?AV12@H@Z 100224c4     mfc140:mfc140.dll
 0002:000004c8       __imp_?Mid@?$CStringT@DV?$StrTraitMFC_DLL@DV?$ChTraitsCRT@D@ATL@@@@@ATL@@QBE?AV12@HH@Z 100224c8     mfc140:mfc140.dll
 0002:000004cc       __imp_?Mid@?$CStringT@DV?$StrTraitMFC_DLL@DV?$ChTraitsCRT@D@ATL@@@@@ATL@@QBE?AV12@H@Z 100224cc     mfc140:mfc140.dll
 0002:000004d0       __imp_?OnFinalRelease@CCmdTarget@@UAEXXZ 100224d0     mfc140:mfc140.dll
 0002:000004d4       __imp_?TrimLeft@?$CStringT@DV?$StrTraitMFC_DLL@DV?$ChTraitsCRT@D@ATL@@@@@ATL@@QAEAAV12@XZ 100224d4     mfc140:mfc140.dll
 0002:000004d8       __imp_?TrimRight@?$CStringT@DV?$StrTraitMFC_DLL@DV?$ChTraitsCRT@D@ATL@@@@@ATL@@QAEAAV12@XZ 100224d8     mfc140:mfc140.dll
 0002:000004dc       __imp_?Find@?$CStringT@DV?$StrTraitMFC_DLL@DV?$ChTraitsCRT@D@ATL@@@@@ATL@@QBEHPBDH@Z 100224dc     mfc140:mfc140.dll
 0002:000004e0       __imp_?OnCmdMsg@CCmdTarget@@UAEHIHPAXPAUAFX_CMDHANDLERINFO@@@Z 100224e0     mfc140:mfc140.dll
 0002:000004e4       __imp_?Find@?$CStringT@DV?$StrTraitMFC_DLL@DV?$ChTraitsCRT@D@ATL@@@@@ATL@@QBEHDH@Z 100224e4     mfc140:mfc140.dll
 0002:000004e8       __imp_?Read@CArchive@@QAEIPAXI@Z 100224e8     mfc140:mfc140.dll
 0002:000004ec       __imp_?Replace@?$CStringT@DV?$StrTraitMFC_DLL@DV?$ChTraitsCRT@D@ATL@@@@@ATL@@QAEHPBD0@Z 100224ec     mfc140:mfc140.dll
 0002:000004f0       __imp_?SetProxy@CWnd@@UAEJPAUIAccessibleProxy@@@Z 100224f0     mfc140:mfc140.dll
 0002:000004f4       __imp_?Delete@CException@@QAEXXZ 100224f4     mfc140:mfc140.dll
 0002:000004f8       __imp_??3CNoTrackObject@@SGXPAX@Z 100224f8     mfc140:mfc140.dll
 0002:000004fc       __imp_??0AFX_MODULE_STATE@@QAE@HP6GJPAUHWND__@@IIJ@ZKH@Z 100224fc     mfc140:mfc140.dll
 0002:00000500       __imp_??1AFX_MODULE_STATE@@UAE@XZ 10022500     mfc140:mfc140.dll
 0002:00000504       __imp_?AfxSetModuleState@@YGPAVAFX_MODULE_STATE@@PAV1@@Z 10022504     mfc140:mfc140.dll
 0002:00000508       __imp_?AfxGetModuleState@@YGPAVAFX_MODULE_STATE@@XZ 10022508     mfc140:mfc140.dll
 0002:0000050c       __imp_?AfxWinInit@@YGHPAUHINSTANCE__@@0PADH@Z 1002250c     mfc140:mfc140.dll
 0002:00000510       __imp_?AfxWndProc@@YGJPAUHWND__@@IIJ@Z 10022510     mfc140:mfc140.dll
 0002:00000514       __imp_?AfxTermThread@@YGXPAUHINSTANCE__@@@Z 10022514     mfc140:mfc140.dll
 0002:00000518       __imp_?AfxWinTerm@@YGXXZ   10022518     mfc140:mfc140.dll
 0002:0000051c       __imp_??0CDynLinkLibrary@@QAE@AAUAFX_EXTENSION_MODULE@@H@Z 1002251c     mfc140:mfc140.dll
 0002:00000520       __imp_?AfxInitExtensionModule@@YGHAAUAFX_EXTENSION_MODULE@@PAUHINSTANCE__@@@Z 10022520     mfc140:mfc140.dll
 0002:00000524       __imp_?AfxTermExtensionModule@@YGXAAUAFX_EXTENSION_MODULE@@H@Z 10022524     mfc140:mfc140.dll
 0002:00000528       __imp_?AfxCoreInitModule@@YGXXZ 10022528     mfc140:mfc140.dll
 0002:0000052c       __imp_?AfxLockTempMaps@@YGXXZ 1002252c     mfc140:mfc140.dll
 0002:00000530       __imp_?AfxUnlockTempMaps@@YGHH@Z 10022530     mfc140:mfc140.dll
 0002:00000534       __imp_??3@YAXPAX@Z         10022534     mfc140:mfc140.dll
 0002:00000538       \177mfc140_NULL_THUNK_DATA 10022538     mfc140:mfc140.dll
 0002:0000053c       ___guard_check_icall_fptr  1002253c     msvcrt:guard_support.obj
 0002:00000540       ___xc_a                    10022540     msvcrt:initializers.obj
 0002:00000550       ___xc_z                    10022550     msvcrt:initializers.obj
 0002:00000554       ___xi_a                    10022554     msvcrt:initializers.obj
 0002:0000055c       ___xi_z                    1002255c     msvcrt:initializers.obj
 0002:00000560       ___xl_a                    10022560     msvcrt:tlssup.obj
 0002:00000564       ___xl_z                    10022564     msvcrt:tlssup.obj
 0002:00000568       ___xp_a                    10022568     msvcrt:initializers.obj
 0002:0000056c       ___xp_z                    1002256c     msvcrt:initializers.obj
 0002:00000570       ___xt_a                    10022570     msvcrt:initializers.obj
 0002:00000574       ___xt_z                    10022574     msvcrt:initializers.obj
 0002:0000057c       ??_7CIBXXXX02App@@6B@      1002257c     IBXXXX02.obj
 0002:00000efa       ??_C@_00CNPNBAHC@@         10022efa     MapWnd.obj
 0002:00000f00       ??_7exception@std@@6B@     10022f00     MapWnd.obj
 0002:00000f08       ??_C@_0BC@EOODALEL@Unknown?5exception@ 10022f08     MapWnd.obj
 0002:00000f20       ??_7bad_alloc@std@@6B@     10022f20     MapWnd.obj
 0002:00000f2c       ??_7bad_array_new_length@std@@6B@ 10022f2c     MapWnd.obj
 0002:00000f34       ??_C@_0BF@KINCDENJ@bad?5array?5new?5length@ 10022f34     MapWnd.obj
 0002:00000f49       ?_Fake_alloc@std@@3U_Fake_allocator@1@B 10022f49     MapWnd.obj
 0002:00000f4c       ??_C@_0BA@FOIKENOD@vector?5too?5long@ 10022f4c     MapWnd.obj
 0002:00000f60       ??_7CCriticalSection@@6B@  10022f60     MapWnd.obj
 0002:00000f84       ??_7CMapWnd@@6B@           10022f84     MapWnd.obj
 0002:000011d0       __real@0000000000000000    100231d0     MapWnd.obj
 0002:000011d8       __real@3f847ae147ae147b    100231d8     MapWnd.obj
 0002:000011e0       __real@3fa999999999999a    100231e0     MapWnd.obj
 0002:000011e8       __real@4008000000000000    100231e8     MapWnd.obj
 0002:000011f0       __real@4059000000000000    100231f0     MapWnd.obj
 0002:00001714       ??_7?$CMap@HHV?$CStringT@DV?$StrTraitMFC_DLL@DV?$ChTraitsCRT@D@ATL@@@@@ATL@@V12@@@6B@ 10023714     Remain.obj
 0002:0000172c       ??_7CRemain@@6B@           1002372c     Remain.obj
 0002:000018b8       __real@3f589374bc6a7efa    100238b8     Remain.obj
 0002:000018c0       __real@3f689374bc6a7efa    100238c0     Remain.obj
 0002:000018c8       __real@3f747ae147ae147b    100238c8     Remain.obj
 0002:000018d0       __real@3fb999999999999a    100238d0     Remain.obj
 0002:000018d8       __real@3fe0000000000000    100238d8     Remain.obj
 0002:00001bec       ??_7CRemainFuture@@6B@     10023bec     RemainFuture.obj
 0002:00001d90       __real@3ff0000000000000    10023d90     RemainFuture.obj
 0002:00001d98       __real@4024000000000000    10023d98     RemainFuture.obj
 0002:00001da0       __real@408f400000000000    10023da0     RemainFuture.obj
 0002:00001da8       __real@40c3880000000000    10023da8     RemainFuture.obj
 0002:00001db0       __real@40e86a0000000000    10023db0     RemainFuture.obj
 0002:00001db8       __real@40f86a0000000000    10023db8     RemainFuture.obj
 0002:00001dc0       __real@410e848000000000    10023dc0     RemainFuture.obj
 0002:00001dc8       __real@412e848000000000    10023dc8     RemainFuture.obj
 0002:00001dd0       __real@4197d78400000000    10023dd0     RemainFuture.obj
 0002:00001dd8       __real@bff0000000000000    10023dd8     RemainFuture.obj
 0002:00001dec       ??_7CShMemory@@6B@         10023dec     ShMemory.obj
 0002:00002060       __pActualRawDllMain        10024060     mfcs140:dllmodul.obj
 0002:00002068       ??_7_AFX_DLL_MODULE_STATE@@6B@ 10024068     mfcs140:dllmodul.obj
 0002:00002070       ??_7type_info@@6B@         10024070     msvcrt:std_type_info_static.obj
 0002:00002078       ??_C@_1EC@JIJBPKFM@?$AAa?$AAp?$AAi?$AA?9?$AAm?$AAs?$AA?9?$AAw?$AAi?$AAn?$AA?9?$AAc?$AAo?$AAr?$AAe@ 10024078     msvcrt:thread_safe_statics.obj
 0002:000020bc       ??_C@_1BK@MGMFAEKH@?$AAk?$AAe?$AAr?$AAn?$AAe?$AAl?$AA3?$AA2?$AA?4?$AAd?$AAl?$AAl@ 100240bc     msvcrt:thread_safe_statics.obj
 0002:000020d8       ??_C@_0BJ@JEBJOJFJ@SleepConditionVariableCS@ 100240d8     msvcrt:thread_safe_statics.obj
 0002:000020f4       ??_C@_0BJ@PGPPEPCC@WakeAllConditionVariable@ 100240f4     msvcrt:thread_safe_statics.obj
 0002:00002110       __pDefaultRawDllMain       10024110     msvcrt:dll_dllmain.obj
 0002:0000211c       _GUID_ATLVer110            1002411c     atls:atlbase.obj
 0002:00002130       ??_C@_1IC@ONKHOIDK@?$AAE?$AAR?$AAR?$AAO?$AAR?$AA?5?$AA?3?$AA?5?$AAU?$AAn?$AAa?$AAb?$AAl?$AAe?$AA?5@ 10024130     atls:atlbase.obj
 0002:000021b4       __pRawDllMain              100241b4     mfcs140:rawdllmainproxy.obj
 0002:000021d8       __load_config_used         100241d8     msvcrt:loadcfg.obj
 0002:000022c0       __tls_used                 100242c0     msvcrt:tlssup.obj
 0002:000022d8       ??_R3CObject@@8            100242d8     IBXXXX02.obj
 0002:000022e8       ??_R2CObject@@8            100242e8     IBXXXX02.obj
 0002:000022f0       ??_R1A@?0A@EA@CObject@@8   100242f0     IBXXXX02.obj
 0002:0000230c       ??_R1A@?0A@EA@CCmdTarget@@8 1002430c     IBXXXX02.obj
 0002:00002328       ??_R3CCmdTarget@@8         10024328     IBXXXX02.obj
 0002:00002338       ??_R2CCmdTarget@@8         10024338     IBXXXX02.obj
 0002:00002344       ??_R4CIBXXXX02App@@6B@     10024344     IBXXXX02.obj
 0002:00002358       ??_R3CIBXXXX02App@@8       10024358     IBXXXX02.obj
 0002:00002368       ??_R2CIBXXXX02App@@8       10024368     IBXXXX02.obj
 0002:00002380       ??_R1A@?0A@EA@CIBXXXX02App@@8 10024380     IBXXXX02.obj
 0002:0000239c       ??_R1A@?0A@EA@CWinApp@@8   1002439c     IBXXXX02.obj
 0002:000023b8       ??_R3CWinApp@@8            100243b8     IBXXXX02.obj
 0002:000023c8       ??_R2CWinApp@@8            100243c8     IBXXXX02.obj
 0002:000023dc       ??_R1A@?0A@EA@CWinThread@@8 100243dc     IBXXXX02.obj
 0002:000023f8       ??_R3CWinThread@@8         100243f8     IBXXXX02.obj
 0002:00002408       ??_R2CWinThread@@8         10024408     IBXXXX02.obj
 0002:00002418       ??_R1A@?0A@EA@CWnd@@8      10024418     MapWnd.obj
 0002:00002434       ??_R3CWnd@@8               10024434     MapWnd.obj
 0002:00002444       ??_R2CWnd@@8               10024444     MapWnd.obj
 0002:00002454       ??_R4exception@std@@6B@    10024454     MapWnd.obj
 0002:00002468       ??_R3exception@std@@8      10024468     MapWnd.obj
 0002:00002478       ??_R2exception@std@@8      10024478     MapWnd.obj
 0002:00002480       ??_R1A@?0A@EA@exception@std@@8 10024480     MapWnd.obj
 0002:0000249c       ??_R4bad_alloc@std@@6B@    1002449c     MapWnd.obj
 0002:000024b0       ??_R3bad_alloc@std@@8      100244b0     MapWnd.obj
 0002:000024c0       ??_R2bad_alloc@std@@8      100244c0     MapWnd.obj
 0002:000024cc       ??_R1A@?0A@EA@bad_alloc@std@@8 100244cc     MapWnd.obj
 0002:000024e8       ??_R4bad_array_new_length@std@@6B@ 100244e8     MapWnd.obj
 0002:000024fc       ??_R3bad_array_new_length@std@@8 100244fc     MapWnd.obj
 0002:0000250c       ??_R2bad_array_new_length@std@@8 1002450c     MapWnd.obj
 0002:0000251c       ??_R1A@?0A@EA@bad_array_new_length@std@@8 1002451c     MapWnd.obj
 0002:00002538       ??_R4CMapWnd@@6B@          10024538     MapWnd.obj
 0002:0000254c       ??_R3CMapWnd@@8            1002454c     MapWnd.obj
 0002:0000255c       ??_R2CMapWnd@@8            1002455c     MapWnd.obj
 0002:00002570       ??_R1A@?0A@EA@CMapWnd@@8   10024570     MapWnd.obj
 0002:0000258c       ??_R4CCriticalSection@@6B@ 1002458c     MapWnd.obj
 0002:000025a0       ??_R3CCriticalSection@@8   100245a0     MapWnd.obj
 0002:000025b0       ??_R2CCriticalSection@@8   100245b0     MapWnd.obj
 0002:000025c0       ??_R1A@?0A@EA@CCriticalSection@@8 100245c0     MapWnd.obj
 0002:000025dc       ??_R1A@?0A@EA@CSyncObject@@8 100245dc     MapWnd.obj
 0002:000025f8       ??_R3CSyncObject@@8        100245f8     MapWnd.obj
 0002:00002608       ??_R2CSyncObject@@8        10024608     MapWnd.obj
 0002:00002614       ??_R4CRemain@@6B@          10024614     Remain.obj
 0002:00002628       ??_R3CRemain@@8            10024628     Remain.obj
 0002:00002638       ??_R2CRemain@@8            10024638     Remain.obj
 0002:0000264c       ??_R1A@?0A@EA@CRemain@@8   1002464c     Remain.obj
 0002:00002668       ??_R4?$CMap@HHV?$CStringT@DV?$StrTraitMFC_DLL@DV?$ChTraitsCRT@D@ATL@@@@@ATL@@V12@@@6B@ 10024668     Remain.obj
 0002:0000267c       ??_R3?$CMap@HHV?$CStringT@DV?$StrTraitMFC_DLL@DV?$ChTraitsCRT@D@ATL@@@@@ATL@@V12@@@8 1002467c     Remain.obj
 0002:0000268c       ??_R2?$CMap@HHV?$CStringT@DV?$StrTraitMFC_DLL@DV?$ChTraitsCRT@D@ATL@@@@@ATL@@V12@@@8 1002468c     Remain.obj
 0002:00002698       ??_R1A@?0A@EA@?$CMap@HHV?$CStringT@DV?$StrTraitMFC_DLL@DV?$ChTraitsCRT@D@ATL@@@@@ATL@@V12@@@8 10024698     Remain.obj
 0002:000026b4       ??_R4CRemainFuture@@6B@    100246b4     RemainFuture.obj
 0002:000026c8       ??_R3CRemainFuture@@8      100246c8     RemainFuture.obj
 0002:000026d8       ??_R2CRemainFuture@@8      100246d8     RemainFuture.obj
 0002:000026ec       ??_R1A@?0A@EA@CRemainFuture@@8 100246ec     RemainFuture.obj
 0002:00002708       ??_R4CShMemory@@6B@        10024708     ShMemory.obj
 0002:0000271c       ??_R3CShMemory@@8          1002471c     ShMemory.obj
 0002:0000272c       ??_R2CShMemory@@8          1002472c     ShMemory.obj
 0002:00002734       ??_R1A@?0A@EA@CShMemory@@8 10024734     ShMemory.obj
 0002:00002750       ??_R3CNoTrackObject@@8     10024750     mfcs140:dllmodul.obj
 0002:00002760       ??_R2CNoTrackObject@@8     10024760     mfcs140:dllmodul.obj
 0002:00002768       ??_R1A@?0A@EA@CNoTrackObject@@8 10024768     mfcs140:dllmodul.obj
 0002:00002784       ??_R4_AFX_DLL_MODULE_STATE@@6B@ 10024784     mfcs140:dllmodul.obj
 0002:00002798       ??_R3_AFX_DLL_MODULE_STATE@@8 10024798     mfcs140:dllmodul.obj
 0002:000027a8       ??_R2_AFX_DLL_MODULE_STATE@@8 100247a8     mfcs140:dllmodul.obj
 0002:000027b8       ??_R1A@?0A@EA@_AFX_DLL_MODULE_STATE@@8 100247b8     mfcs140:dllmodul.obj
 0002:000027d4       ??_R1A@?0A@EA@AFX_MODULE_STATE@@8 100247d4     mfcs140:dllmodul.obj
 0002:000027f0       ??_R3AFX_MODULE_STATE@@8   100247f0     mfcs140:dllmodul.obj
 0002:00002800       ??_R2AFX_MODULE_STATE@@8   10024800     mfcs140:dllmodul.obj
 0002:0000280c       ??_R4type_info@@6B@        1002480c     msvcrt:std_type_info_static.obj
 0002:00002820       ??_R3type_info@@8          10024820     msvcrt:std_type_info_static.obj
 0002:00002830       ??_R2type_info@@8          10024830     msvcrt:std_type_info_static.obj
 0002:00002838       ??_R1A@?0A@EA@type_info@@8 10024838     msvcrt:std_type_info_static.obj
 0002:00002854       ___safe_se_handler_table   10024854     <linker-defined>
 0002:000029f4       ___volatile_metadata       100249f4     <linker-defined>
 0002:00003024       ___rtc_iaa                 10025024     msvcrt:initsect.obj
 0002:00003028       ___rtc_izz                 10025028     msvcrt:initsect.obj
 0002:0000302c       ___rtc_taa                 1002502c     msvcrt:initsect.obj
 0002:00003030       ___rtc_tzz                 10025030     msvcrt:initsect.obj
 0002:00003034       __tls_start                10025034     msvcrt:tlssup.obj
 0002:00003038       __Init_thread_epoch        10025038     msvcrt:thread_safe_statics.obj
 0002:0000303c       __tls_end                  1002503c     msvcrt:tlssup.obj
 0002:000046fc       __TI3?AVbad_array_new_length@std@@ 100266fc     MapWnd.obj
 0002:0000470c       __CTA3?AVbad_array_new_length@std@@ 1002670c     MapWnd.obj
 0002:0000471c       __CT??_R0?AVbad_array_new_length@std@@@8??0bad_array_new_length@std@@QAE@ABV01@@Z12 1002671c     MapWnd.obj
 0002:00004738       __CT??_R0?AVbad_alloc@std@@@8??0bad_alloc@std@@QAE@ABV01@@Z12 10026738     MapWnd.obj
 0002:00004754       __CT??_R0?AVexception@std@@@8??0exception@std@@QAE@ABV01@@Z12 10026754     MapWnd.obj
 0002:00005938       __IMPORT_DESCRIPTOR_mfc140 10027938     mfc140:mfc140.dll
 0002:0000594c       __IMPORT_DESCRIPTOR_KERNEL32 1002794c     kernel32:KERNEL32.dll
 0002:00005960       __IMPORT_DESCRIPTOR_USER32 10027960     user32:USER32.dll
 0002:00005974       __IMPORT_DESCRIPTOR_MSVCP140 10027974     msvcprt:MSVCP140.dll
 0002:00005988       __IMPORT_DESCRIPTOR_VCRUNTIME140 10027988     vcruntime:VCRUNTIME140.dll
 0002:0000599c       __IMPORT_DESCRIPTOR_api-ms-win-crt-runtime-l1-1-0 1002799c     ucrt:api-ms-win-crt-runtime-l1-1-0.dll
 0002:000059b0       __IMPORT_DESCRIPTOR_api-ms-win-crt-string-l1-1-0 100279b0     ucrt:api-ms-win-crt-string-l1-1-0.dll
 0002:000059c4       __IMPORT_DESCRIPTOR_api-ms-win-crt-multibyte-l1-1-0 100279c4     ucrt:api-ms-win-crt-multibyte-l1-1-0.dll
 0002:000059d8       __IMPORT_DESCRIPTOR_api-ms-win-crt-convert-l1-1-0 100279d8     ucrt:api-ms-win-crt-convert-l1-1-0.dll
 0002:000059ec       __IMPORT_DESCRIPTOR_api-ms-win-crt-time-l1-1-0 100279ec     ucrt:api-ms-win-crt-time-l1-1-0.dll
 0002:00005a00       __IMPORT_DESCRIPTOR_api-ms-win-crt-utility-l1-1-0 10027a00     ucrt:api-ms-win-crt-utility-l1-1-0.dll
 0002:00005a14       __IMPORT_DESCRIPTOR_api-ms-win-crt-math-l1-1-0 10027a14     ucrt:api-ms-win-crt-math-l1-1-0.dll
 0002:00005a28       __IMPORT_DESCRIPTOR_api-ms-win-crt-heap-l1-1-0 10027a28     ucrt:api-ms-win-crt-heap-l1-1-0.dll
 0002:00005a3c       __NULL_IMPORT_DESCRIPTOR   10027a3c     mfc140:mfc140.dll
 0003:00000000       ___scrt_native_dllmain_reason 10029000     msvcrt:utility.obj
 0003:00000004       ___security_cookie_complement 10029004     msvcrt:gs_cookie.obj
 0003:00000008       ___security_cookie         10029008     msvcrt:gs_cookie.obj
 0003:0000000c       __fltused                  1002900c     msvcrt:fltused.obj
 0003:00000010       __Init_global_epoch        10029010     msvcrt:thread_safe_statics.obj
 0003:00000020       ___isa_enabled             10029020     msvcrt:cpu_disp.obj
 0003:00000024       ___scrt_ucrt_dll_is_in_use 10029024     msvcrt:ucrt_stubs.obj
 0003:00000028       ??_R0?AVbad_array_new_length@std@@@8 10029028     MapWnd.obj
 0003:00000050       ??_R0?AVbad_alloc@std@@@8  10029050     MapWnd.obj
 0003:0000006c       ??_R0?AVexception@std@@@8  1002906c     MapWnd.obj
 0003:00000088       ??_R0PAVCMemoryException@@@8 10029088     mfcs140:dllmodul.obj
 0003:000000a8       ??_R0?AVCObject@@@8        100290a8     IBXXXX02.obj
 0003:000000c0       ??_R0?AVCCmdTarget@@@8     100290c0     IBXXXX02.obj
 0003:000000dc       ??_R0?AVCIBXXXX02App@@@8   100290dc     IBXXXX02.obj
 0003:000000f8       ??_R0?AVCWinApp@@@8        100290f8     IBXXXX02.obj
 0003:00000110       ??_R0?AVCWinThread@@@8     10029110     IBXXXX02.obj
 0003:0000012c       ??_R0?AVCWnd@@@8           1002912c     MapWnd.obj
 0003:00000140       ??_R0?AVCMapWnd@@@8        10029140     MapWnd.obj
 0003:00000158       ??_R0?AVCCriticalSection@@@8 10029158     MapWnd.obj
 0003:00000178       ??_R0?AVCSyncObject@@@8    10029178     MapWnd.obj
 0003:00000194       ??_R0?AVCRemain@@@8        10029194     Remain.obj
 0003:000001b0       ??_R0?AV?$CMap@HHV?$CStringT@DV?$StrTraitMFC_DLL@DV?$ChTraitsCRT@D@ATL@@@@@ATL@@V12@@@@8 100291b0     Remain.obj
 0003:0000020c       ??_R0?AVCRemainFuture@@@8  1002920c     RemainFuture.obj
 0003:00000228       ??_R0?AVCShMemory@@@8      10029228     ShMemory.obj
 0003:00000240       ??_R0?AVCNoTrackObject@@@8 10029240     mfcs140:dllmodul.obj
 0003:00000260       ??_R0?AV_AFX_DLL_MODULE_STATE@@@8 10029260     mfcs140:dllmodul.obj
 0003:00000284       ??_R0?AVAFX_MODULE_STATE@@@8 10029284     mfcs140:dllmodul.obj
 0003:000002a4       ??_R0?AVtype_info@@@8      100292a4     msvcrt:std_type_info_static.obj
 0003:000002c0       ?theApp@@3VCIBXXXX02App@@A 100292c0     IBXXXX02.obj
 0003:0000038c       ___@@_PchSym_@00@UtrgUhixUrypUzkkoUryccccAARKlnKrvKpzKlnKqrKouKlnKqlKqvKlpKowKpzSKlnKqpKovKlnKqrKryTUivovzhvUhgwzucOlyq@4B2008FD98C1DD4 1002938c     StdAfx.obj
 0003:00000390       ?m_bInitFailed@CAtlBaseModule@ATL@@2_NA 10029390     StdAfx.obj
 0003:00000394       __afxForceEXCLUDE          10029394     mfcs140:nolib.obj
 0003:00000398       __afxForceUSRDLL           10029398     mfcs140:dllmodul.obj
 0003:00000450       ?__mixedModuleStartup@@3HA 10029450     mfcs140:dllmodul.obj
 0003:00000454       __afxForceSTDAFX           10029454     mfcs140:stdafx.obj
 0003:00000458       ___scrt_current_native_startup_state 10029458     msvcrt:utility.obj
 0003:0000045c       ___scrt_native_startup_lock 1002945c     msvcrt:utility.obj
 0003:000004a4       __tls_index                100294a4     msvcrt:tlssup.obj
 0003:000004ac       ___castguard_check_failure_os_handled_fptr 100294ac     msvcrt:guard_support.obj
 0003:000004b0       ___isa_available           100294b0     msvcrt:cpu_disp.obj
 0003:000004b4       ___favor                   100294b4     msvcrt:cpu_disp.obj
 0003:000004b8       ___scrt_debugger_hook_flag 100294b8     msvcrt:utility_desktop.obj
 0003:000007e0       ?__type_info_root_node@@3U__type_info_node@@A 100297e0     msvcrt:tncleanup.obj
 0003:000007e8       ?_OptionsStorage@?1??__local_stdio_printf_options@@9@4_KA 100297e8     msvcrt:default_local_stdio_options.obj
 0003:000007f0       ?_OptionsStorage@?1??__local_stdio_scanf_options@@9@4_KA 100297f0     msvcrt:default_local_stdio_options.obj
 0003:000007f8       ?_AtlBaseModule@ATL@@3VCAtlBaseModule@1@A 100297f8     atls:atlbase.obj
 0003:00000830       ___@@_PchSym_@00@UzUPdlipUBUhUrmgvinvwrzgvUexgllohUzgohOmzgrevkilqPBACIAJCBDBUlyqiUcIGUhgwzucOlyq@4B2008FD98C1DD4 10029830     atls:stdafx.obj
 0003:00000834       ___dyn_tls_init_callback   10029834     <common>

 entry point at        0001:0001c5cd

 Static symbols

 0002:fffde000       .idata$6                   10000000     oleaut32:OLEAUT32.dll
 0001:00000000       ??__EtheApp@@YAXXZ         10001000 f   IBXXXX02.obj
 0001:0000001c       ??__EafxModuleState@@YAXXZ 1000101c f   mfcs140:dllmodul.obj
 0001:0000004a       ??__E_AtlBaseModule@ATL@@YAXXZ 1000104a f   atls:atlbase.obj
 0001:0000151c       $LN58                      1000251c     MapWnd.obj
 0001:00001530       $LN57                      10002530     MapWnd.obj
 0001:0000d133       __catch$??$_Emplace_reallocate@V?$unique_ptr@VCAccn@@U?$default_delete@VCAccn@@@std@@@std@@@?$vector@V?$unique_ptr@VCAccn@@U?$default_delete@VCAccn@@@std@@@std@@V?$allocator@V?$unique_ptr@VCAccn@@U?$default_delete@VCAccn@@@std@@@std@@@2@@std@@QAEPAV?$unique_ptr@VCAccn@@U?$default_delete@VCAccn@@@std@@@1@QAV21@$$QAV21@@Z$0 1000e133 f i MapWnd.obj
 0001:000139e8       $LN66                      100149e8     Remain.obj
 0001:000139f4       $LN65                      100149f4     Remain.obj
 0001:00013a48       $LN68                      10014a48     Remain.obj
 0001:00013a54       $LN67                      10014a54     Remain.obj
 0001:0001a3f0       $LN30                      1001b3f0     RemainFuture.obj
 0001:0001a908       $LN44                      1001b908     RemainFuture.obj
 0001:0001a91c       $LN43                      1001b91c     RemainFuture.obj
 0001:0001bb8b       __catch$_InternalDllMain@12$2 1001cb8b f   mfcs140:dllmodul.obj
 0001:0001bc74       ?find_pe_section@@YAPAU_IMAGE_SECTION_HEADER@@QAEI@Z 1001cc74 f   msvcrt:utility.obj
 0001:0001c160       $$000000                   1001d160     msvcrt:ulldiv.obj
 0001:0001c182       L1                         1001d182     msvcrt:ulldiv.obj
 0001:0001c190       L3                         1001d190     msvcrt:ulldiv.obj
 0001:0001c1be       L4                         1001d1be     msvcrt:ulldiv.obj
 0001:0001c1bf       L5                         1001d1bf     msvcrt:ulldiv.obj
 0001:0001c1c3       L2                         1001d1c3     msvcrt:ulldiv.obj
 0001:0001c1c8       ?__scrt_initialize_thread_safe_statics@@YAHXZ 1001d1c8 f   msvcrt:thread_safe_statics.obj
 0001:0001c1ef       ?__scrt_initialize_thread_safe_statics_platform_specific@@YAXXZ 1001d1ef f   msvcrt:thread_safe_statics.obj
 0001:0001c271       ?__scrt_uninitialize_thread_safe_statics@@YAXXZ 1001d271 f   msvcrt:thread_safe_statics.obj
 0001:0001c28d       ?dllmain_crt_dispatch@@YGHQAUHINSTANCE__@@KQAX@Z 1001d28d f   msvcrt:dll_dllmain.obj
 0001:0001c2e0       ?dllmain_crt_process_attach@@YAHQAUHINSTANCE__@@QAX@Z 1001d2e0 f   msvcrt:dll_dllmain.obj
 0001:0001c3e7       ?dllmain_crt_process_detach@@YAH_N@Z 1001d3e7 f   msvcrt:dll_dllmain.obj
 0001:0001c497       ?dllmain_dispatch@@YAHQAUHINSTANCE__@@KQAX@Z 1001d497 f   msvcrt:dll_dllmain.obj
 0001:0001c5a2       ?dllmain_raw@@YGHQAUHINSTANCE__@@KQAX@Z 1001d5a2 f   msvcrt:dll_dllmain.obj
 0001:0001c670       $$000000                   1001d670     msvcrt:sehprolg4.obj
 0001:0001cb18       ___get_entropy             1001db18 f   msvcrt:gs_support.obj
 0001:0001ce33       __FindPESection            1001de33 f   mfcs140:rawdllmainproxy.obj
 0001:0001ce77       __IsNonwritableInCurrentImage 1001de77 f   mfcs140:rawdllmainproxy.obj
 0001:0001cf90       __unwindfunclet$?axCreate@@YGPAVCWnd@@PAV1@@Z$0 1001df90 f   libmap.obj
 0001:0001cf98       __unwindfunclet$?axCreate@@YGPAVCWnd@@PAV1@@Z$1 1001df98 f   libmap.obj
 0001:0001cfa5       __ehhandler$?axCreate@@YGPAVCWnd@@PAV1@@Z 1001dfa5 f   libmap.obj
 0001:0001cfd0       __unwindfunclet$??$make_unique@VCWnd@@$$V$0A@@std@@YA?AV?$unique_ptr@VCWnd@@U?$default_delete@VCWnd@@@std@@@0@XZ$0 1001dfd0 f   MapWnd.obj
 0001:0001cfd0       __unwindfunclet$??$make_unique@VCMapWnd@@$$V$0A@@std@@YA?AV?$unique_ptr@VCMapWnd@@U?$default_delete@VCMapWnd@@@std@@@0@XZ$0 1001dfd0 f   libmap.obj
 0001:0001cfdf       __ehhandler$??$make_unique@VCWnd@@$$V$0A@@std@@YA?AV?$unique_ptr@VCWnd@@U?$default_delete@VCWnd@@@std@@@0@XZ 1001dfdf f   MapWnd.obj
 0001:0001cfdf       __ehhandler$??$make_unique@VCMapWnd@@$$V$0A@@std@@YA?AV?$unique_ptr@VCMapWnd@@U?$default_delete@VCMapWnd@@@std@@@0@XZ 1001dfdf f   libmap.obj
 0001:0001d010       __unwindfunclet$??0CMapWnd@@QAE@XZ$0 1001e010 f   MapWnd.obj
 0001:0001d018       __unwindfunclet$??0CMapWnd@@QAE@XZ$1 1001e018 f   MapWnd.obj
 0001:0001d026       __unwindfunclet$??0CMapWnd@@QAE@XZ$2 1001e026 f   MapWnd.obj
 0001:0001d034       __unwindfunclet$??0CMapWnd@@QAE@XZ$3 1001e034 f   MapWnd.obj
 0001:0001d042       __unwindfunclet$??0CMapWnd@@QAE@XZ$4 1001e042 f   MapWnd.obj
 0001:0001d050       __unwindfunclet$??0CMapWnd@@QAE@XZ$5 1001e050 f   MapWnd.obj
 0001:0001d05e       __unwindfunclet$??0CMapWnd@@QAE@XZ$6 1001e05e f   MapWnd.obj
 0001:0001d06c       __unwindfunclet$??0CMapWnd@@QAE@XZ$7 1001e06c f   MapWnd.obj
 0001:0001d07a       __unwindfunclet$??0CMapWnd@@QAE@XZ$8 1001e07a f   MapWnd.obj
 0001:0001d088       __unwindfunclet$??0CMapWnd@@QAE@XZ$9 1001e088 f   MapWnd.obj
 0001:0001d096       __unwindfunclet$??0CMapWnd@@QAE@XZ$10 1001e096 f   MapWnd.obj
 0001:0001d0a4       __unwindfunclet$??0CMapWnd@@QAE@XZ$11 1001e0a4 f   MapWnd.obj
 0001:0001d0b2       __unwindfunclet$??0CMapWnd@@QAE@XZ$12 1001e0b2 f   MapWnd.obj
 0001:0001d0c1       __unwindfunclet$??0CMapWnd@@QAE@XZ$13 1001e0c1 f   MapWnd.obj
 0001:0001d0d0       __unwindfunclet$??0CMapWnd@@QAE@XZ$14 1001e0d0 f   MapWnd.obj
 0001:0001d0df       __unwindfunclet$??0CMapWnd@@QAE@XZ$15 1001e0df f   MapWnd.obj
 0001:0001d0f2       __ehhandler$??0CMapWnd@@QAE@XZ 1001e0f2 f   MapWnd.obj
 0001:0001d10f       __ehhandler$??1CMapWnd@@UAE@XZ 1001e10f f   MapWnd.obj
 0001:0001d12c       __unwindfunclet$?OnPaint@CMapWnd@@IAEXXZ$0 1001e12c f   MapWnd.obj
 0001:0001d139       __ehhandler$?OnPaint@CMapWnd@@IAEXXZ 1001e139 f   MapWnd.obj
 0001:0001d160       __unwindfunclet$?OnDestroy@CMapWnd@@IAEXXZ$0 1001e160 f   MapWnd.obj
 0001:0001d16e       __ehhandler$?OnDestroy@CMapWnd@@IAEXXZ 1001e16e f   MapWnd.obj
 0001:0001d18b       __unwindfunclet$?OnMessage@CMapWnd@@IAEJIJ@Z$0 1001e18b f   MapWnd.obj
 0001:0001d197       __unwindfunclet$?OnMessage@CMapWnd@@IAEJIJ@Z$2 1001e197 f   MapWnd.obj
 0001:0001d1a3       __unwindfunclet$?OnMessage@CMapWnd@@IAEJIJ@Z$3 1001e1a3 f   MapWnd.obj
 0001:0001d1af       __unwindfunclet$?OnMessage@CMapWnd@@IAEJIJ@Z$5 1001e1af f   MapWnd.obj
 0001:0001d1bb       __unwindfunclet$?OnMessage@CMapWnd@@IAEJIJ@Z$6 1001e1bb f   MapWnd.obj
 0001:0001d1c7       __unwindfunclet$?OnMessage@CMapWnd@@IAEJIJ@Z$8 1001e1c7 f   MapWnd.obj
 0001:0001d1d3       __unwindfunclet$?OnMessage@CMapWnd@@IAEJIJ@Z$9 1001e1d3 f   MapWnd.obj
 0001:0001d1df       __unwindfunclet$?OnMessage@CMapWnd@@IAEJIJ@Z$10 1001e1df f   MapWnd.obj
 0001:0001d1eb       __unwindfunclet$?OnMessage@CMapWnd@@IAEJIJ@Z$11 1001e1eb f   MapWnd.obj
 0001:0001d1f7       __unwindfunclet$?OnMessage@CMapWnd@@IAEJIJ@Z$12 1001e1f7 f   MapWnd.obj
 0001:0001d203       __unwindfunclet$?OnMessage@CMapWnd@@IAEJIJ@Z$13 1001e203 f   MapWnd.obj
 0001:0001d20f       __unwindfunclet$?OnMessage@CMapWnd@@IAEJIJ@Z$14 1001e20f f   MapWnd.obj
 0001:0001d21b       __unwindfunclet$?OnMessage@CMapWnd@@IAEJIJ@Z$16 1001e21b f   MapWnd.obj
 0001:0001d227       __unwindfunclet$?OnMessage@CMapWnd@@IAEJIJ@Z$17 1001e227 f   MapWnd.obj
 0001:0001d233       __unwindfunclet$?OnMessage@CMapWnd@@IAEJIJ@Z$20 1001e233 f   MapWnd.obj
 0001:0001d23f       __unwindfunclet$?OnMessage@CMapWnd@@IAEJIJ@Z$21 1001e23f f   MapWnd.obj
 0001:0001d24b       __unwindfunclet$?OnMessage@CMapWnd@@IAEJIJ@Z$22 1001e24b f   MapWnd.obj
 0001:0001d257       __unwindfunclet$?OnMessage@CMapWnd@@IAEJIJ@Z$25 1001e257 f   MapWnd.obj
 0001:0001d263       __unwindfunclet$?OnMessage@CMapWnd@@IAEJIJ@Z$26 1001e263 f   MapWnd.obj
 0001:0001d274       __ehhandler$?OnMessage@CMapWnd@@IAEJIJ@Z 1001e274 f   MapWnd.obj
 0001:0001d29e       __unwindfunclet$?OnRequestOfCtrl@CMapWnd@@IAEJIJ@Z$0 1001e29e f   MapWnd.obj
 0001:0001d2a7       __unwindfunclet$?OnRequestOfCtrl@CMapWnd@@IAEJIJ@Z$1 1001e2a7 f   MapWnd.obj
 0001:0001d2b0       __unwindfunclet$?OnRequestOfCtrl@CMapWnd@@IAEJIJ@Z$2 1001e2b0 f   MapWnd.obj
 0001:0001d2b9       __unwindfunclet$?OnRequestOfCtrl@CMapWnd@@IAEJIJ@Z$3 1001e2b9 f   MapWnd.obj
 0001:0001d2c5       __unwindfunclet$?OnRequestOfCtrl@CMapWnd@@IAEJIJ@Z$7 1001e2c5 f   MapWnd.obj
 0001:0001d2ce       __unwindfunclet$?OnRequestOfCtrl@CMapWnd@@IAEJIJ@Z$9 1001e2ce f   MapWnd.obj
 0001:0001d2d7       __unwindfunclet$?OnRequestOfCtrl@CMapWnd@@IAEJIJ@Z$11 1001e2d7 f   MapWnd.obj
 0001:0001d2e0       __unwindfunclet$?OnRequestOfCtrl@CMapWnd@@IAEJIJ@Z$13 1001e2e0 f   MapWnd.obj
 0001:0001d2e9       __unwindfunclet$?OnRequestOfCtrl@CMapWnd@@IAEJIJ@Z$15 1001e2e9 f   MapWnd.obj
 0001:0001d2f2       __unwindfunclet$?OnRequestOfCtrl@CMapWnd@@IAEJIJ@Z$17 1001e2f2 f   MapWnd.obj
 0001:0001d2fb       __unwindfunclet$?OnRequestOfCtrl@CMapWnd@@IAEJIJ@Z$19 1001e2fb f   MapWnd.obj
 0001:0001d304       __unwindfunclet$?OnRequestOfCtrl@CMapWnd@@IAEJIJ@Z$21 1001e304 f   MapWnd.obj
 0001:0001d30d       __unwindfunclet$?OnRequestOfCtrl@CMapWnd@@IAEJIJ@Z$22 1001e30d f   MapWnd.obj
 0001:0001d319       __unwindfunclet$?OnRequestOfCtrl@CMapWnd@@IAEJIJ@Z$23 1001e319 f   MapWnd.obj
 0001:0001d325       __unwindfunclet$?OnRequestOfCtrl@CMapWnd@@IAEJIJ@Z$24 1001e325 f   MapWnd.obj
 0001:0001d331       __unwindfunclet$?OnRequestOfCtrl@CMapWnd@@IAEJIJ@Z$25 1001e331 f   MapWnd.obj
 0001:0001d33d       __unwindfunclet$?OnRequestOfCtrl@CMapWnd@@IAEJIJ@Z$26 1001e33d f   MapWnd.obj
 0001:0001d349       __unwindfunclet$?OnRequestOfCtrl@CMapWnd@@IAEJIJ@Z$27 1001e349 f   MapWnd.obj
 0001:0001d355       __unwindfunclet$?OnRequestOfCtrl@CMapWnd@@IAEJIJ@Z$28 1001e355 f   MapWnd.obj
 0001:0001d361       __unwindfunclet$?OnRequestOfCtrl@CMapWnd@@IAEJIJ@Z$30 1001e361 f   MapWnd.obj
 0001:0001d372       __ehhandler$?OnRequestOfCtrl@CMapWnd@@IAEJIJ@Z 1001e372 f   MapWnd.obj
 0001:0001d392       __unwindfunclet$?OnRequestLawCheg@CMapWnd@@IAEJIJ@Z$0 1001e392 f   MapWnd.obj
 0001:0001d39b       __unwindfunclet$?OnRequestLawCheg@CMapWnd@@IAEJIJ@Z$1 1001e39b f   MapWnd.obj
 0001:0001d3a4       __unwindfunclet$?OnRequestLawCheg@CMapWnd@@IAEJIJ@Z$2 1001e3a4 f   MapWnd.obj
 0001:0001d3ad       __unwindfunclet$?OnRequestLawCheg@CMapWnd@@IAEJIJ@Z$3 1001e3ad f   MapWnd.obj
 0001:0001d3b6       __unwindfunclet$?OnRequestLawCheg@CMapWnd@@IAEJIJ@Z$4 1001e3b6 f   MapWnd.obj
 0001:0001d3bf       __unwindfunclet$?OnRequestLawCheg@CMapWnd@@IAEJIJ@Z$5 1001e3bf f   MapWnd.obj
 0001:0001d3c8       __unwindfunclet$?OnRequestLawCheg@CMapWnd@@IAEJIJ@Z$6 1001e3c8 f   MapWnd.obj
 0001:0001d3d6       __ehhandler$?OnRequestLawCheg@CMapWnd@@IAEJIJ@Z 1001e3d6 f   MapWnd.obj
 0001:0001d3f3       __unwindfunclet$?OnCloseOfCtrl@CMapWnd@@IAEJIJ@Z$0 1001e3f3 f   MapWnd.obj
 0001:0001d3fc       __unwindfunclet$?OnCloseOfCtrl@CMapWnd@@IAEJIJ@Z$1 1001e3fc f   MapWnd.obj
 0001:0001d405       __unwindfunclet$?OnCloseOfCtrl@CMapWnd@@IAEJIJ@Z$2 1001e405 f   MapWnd.obj
 0001:0001d40e       __unwindfunclet$?OnCloseOfCtrl@CMapWnd@@IAEJIJ@Z$4 1001e40e f   MapWnd.obj
 0001:0001d41c       __ehhandler$?OnCloseOfCtrl@CMapWnd@@IAEJIJ@Z 1001e41c f   MapWnd.obj
 0001:0001d439       __unwindfunclet$?OnReceiveRemainData@CMapWnd@@IAEJIJ@Z$0 1001e439 f   MapWnd.obj
 0001:0001d442       __unwindfunclet$?OnReceiveRemainData@CMapWnd@@IAEJIJ@Z$1 1001e442 f   MapWnd.obj
 0001:0001d44b       __unwindfunclet$?OnReceiveRemainData@CMapWnd@@IAEJIJ@Z$2 1001e44b f   MapWnd.obj
 0001:0001d454       __unwindfunclet$?OnReceiveRemainData@CMapWnd@@IAEJIJ@Z$3 1001e454 f   MapWnd.obj
 0001:0001d45d       __unwindfunclet$?OnReceiveRemainData@CMapWnd@@IAEJIJ@Z$4 1001e45d f   MapWnd.obj
 0001:0001d466       __unwindfunclet$?OnReceiveRemainData@CMapWnd@@IAEJIJ@Z$8 1001e466 f   MapWnd.obj
 0001:0001d46f       __unwindfunclet$?OnReceiveRemainData@CMapWnd@@IAEJIJ@Z$10 1001e46f f   MapWnd.obj
 0001:0001d478       __unwindfunclet$?OnReceiveRemainData@CMapWnd@@IAEJIJ@Z$12 1001e478 f   MapWnd.obj
 0001:0001d484       __unwindfunclet$?OnReceiveRemainData@CMapWnd@@IAEJIJ@Z$14 1001e484 f   MapWnd.obj
 0001:0001d490       __unwindfunclet$?OnReceiveRemainData@CMapWnd@@IAEJIJ@Z$15 1001e490 f   MapWnd.obj
 0001:0001d49b       __unwindfunclet$?OnReceiveRemainData@CMapWnd@@IAEJIJ@Z$16 1001e49b f   MapWnd.obj
 0001:0001d4a5       __unwindfunclet$?OnReceiveRemainData@CMapWnd@@IAEJIJ@Z$18 1001e4a5 f   MapWnd.obj
 0001:0001d4ae       __unwindfunclet$?OnReceiveRemainData@CMapWnd@@IAEJIJ@Z$19 1001e4ae f   MapWnd.obj
 0001:0001d4b7       __unwindfunclet$?OnReceiveRemainData@CMapWnd@@IAEJIJ@Z$20 1001e4b7 f   MapWnd.obj
 0001:0001d4c0       __unwindfunclet$?OnReceiveRemainData@CMapWnd@@IAEJIJ@Z$21 1001e4c0 f   MapWnd.obj
 0001:0001d4c9       __unwindfunclet$?OnReceiveRemainData@CMapWnd@@IAEJIJ@Z$22 1001e4c9 f   MapWnd.obj
 0001:0001d4d5       __unwindfunclet$?OnReceiveRemainData@CMapWnd@@IAEJIJ@Z$23 1001e4d5 f   MapWnd.obj
 0001:0001d4e1       __unwindfunclet$?OnReceiveRemainData@CMapWnd@@IAEJIJ@Z$24 1001e4e1 f   MapWnd.obj
 0001:0001d4ed       __unwindfunclet$?OnReceiveRemainData@CMapWnd@@IAEJIJ@Z$25 1001e4ed f   MapWnd.obj
 0001:0001d4f9       __unwindfunclet$?OnReceiveRemainData@CMapWnd@@IAEJIJ@Z$26 1001e4f9 f   MapWnd.obj
 0001:0001d505       __unwindfunclet$?OnReceiveRemainData@CMapWnd@@IAEJIJ@Z$27 1001e505 f   MapWnd.obj
 0001:0001d511       __unwindfunclet$?OnReceiveRemainData@CMapWnd@@IAEJIJ@Z$28 1001e511 f   MapWnd.obj
 0001:0001d51d       __unwindfunclet$?OnReceiveRemainData@CMapWnd@@IAEJIJ@Z$30 1001e51d f   MapWnd.obj
 0001:0001d529       __unwindfunclet$?OnReceiveRemainData@CMapWnd@@IAEJIJ@Z$31 1001e529 f   MapWnd.obj
 0001:0001d535       __unwindfunclet$?OnReceiveRemainData@CMapWnd@@IAEJIJ@Z$32 1001e535 f   MapWnd.obj
 0001:0001d544       __ehhandler$?OnReceiveRemainData@CMapWnd@@IAEJIJ@Z 1001e544 f   MapWnd.obj
 0001:0001d564       __unwindfunclet$?CreateMap@CMapWnd@@QAEHPAVCWnd@@@Z$1 1001e564 f   MapWnd.obj
 0001:0001d56d       __unwindfunclet$?CreateMap@CMapWnd@@QAEHPAVCWnd@@@Z$3 1001e56d f   MapWnd.obj
 0001:0001d576       __unwindfunclet$?CreateMap@CMapWnd@@QAEHPAVCWnd@@@Z$7 1001e576 f   MapWnd.obj
 0001:0001d57f       __unwindfunclet$?CreateMap@CMapWnd@@QAEHPAVCWnd@@@Z$8 1001e57f f   MapWnd.obj
 0001:0001d58d       __ehhandler$?CreateMap@CMapWnd@@QAEHPAVCWnd@@@Z 1001e58d f   MapWnd.obj
 0001:0001d5b7       __unwindfunclet$?sendRemainTR@CMapWnd@@AAEXV?$CStringT@DV?$StrTraitMFC_DLL@DV?$ChTraitsCRT@D@ATL@@@@@ATL@@0_N1HNNHHPAUHWND__@@@Z$0 1001e5b7 f   MapWnd.obj
 0001:0001d5c0       __unwindfunclet$?sendRemainTR@CMapWnd@@AAEXV?$CStringT@DV?$StrTraitMFC_DLL@DV?$ChTraitsCRT@D@ATL@@@@@ATL@@0_N1HNNHHPAUHWND__@@@Z$1 1001e5c0 f   MapWnd.obj
 0001:0001d5c9       __unwindfunclet$?sendRemainTR@CMapWnd@@AAEXV?$CStringT@DV?$StrTraitMFC_DLL@DV?$ChTraitsCRT@D@ATL@@@@@ATL@@0_N1HNNHHPAUHWND__@@@Z$2 1001e5c9 f   MapWnd.obj
 0001:0001d5d2       __unwindfunclet$?sendRemainTR@CMapWnd@@AAEXV?$CStringT@DV?$StrTraitMFC_DLL@DV?$ChTraitsCRT@D@ATL@@@@@ATL@@0_N1HNNHHPAUHWND__@@@Z$3 1001e5d2 f   MapWnd.obj
 0001:0001d5db       __unwindfunclet$?sendRemainTR@CMapWnd@@AAEXV?$CStringT@DV?$StrTraitMFC_DLL@DV?$ChTraitsCRT@D@ATL@@@@@ATL@@0_N1HNNHHPAUHWND__@@@Z$4 1001e5db f   MapWnd.obj
 0001:0001d5e4       __unwindfunclet$?sendRemainTR@CMapWnd@@AAEXV?$CStringT@DV?$StrTraitMFC_DLL@DV?$ChTraitsCRT@D@ATL@@@@@ATL@@0_N1HNNHHPAUHWND__@@@Z$5 1001e5e4 f   MapWnd.obj
 0001:0001d5ed       __unwindfunclet$?sendRemainTR@CMapWnd@@AAEXV?$CStringT@DV?$StrTraitMFC_DLL@DV?$ChTraitsCRT@D@ATL@@@@@ATL@@0_N1HNNHHPAUHWND__@@@Z$6 1001e5ed f   MapWnd.obj
 0001:0001d5f8       __unwindfunclet$?sendRemainTR@CMapWnd@@AAEXV?$CStringT@DV?$StrTraitMFC_DLL@DV?$ChTraitsCRT@D@ATL@@@@@ATL@@0_N1HNNHHPAUHWND__@@@Z$7 1001e5f8 f   MapWnd.obj
 0001:0001d603       __unwindfunclet$?sendRemainTR@CMapWnd@@AAEXV?$CStringT@DV?$StrTraitMFC_DLL@DV?$ChTraitsCRT@D@ATL@@@@@ATL@@0_N1HNNHHPAUHWND__@@@Z$8 1001e603 f   MapWnd.obj
 0001:0001d60f       __unwindfunclet$?sendRemainTR@CMapWnd@@AAEXV?$CStringT@DV?$StrTraitMFC_DLL@DV?$ChTraitsCRT@D@ATL@@@@@ATL@@0_N1HNNHHPAUHWND__@@@Z$10 1001e60f f   MapWnd.obj
 0001:0001d61b       __unwindfunclet$?sendRemainTR@CMapWnd@@AAEXV?$CStringT@DV?$StrTraitMFC_DLL@DV?$ChTraitsCRT@D@ATL@@@@@ATL@@0_N1HNNHHPAUHWND__@@@Z$11 1001e61b f   MapWnd.obj
 0001:0001d627       __unwindfunclet$?sendRemainTR@CMapWnd@@AAEXV?$CStringT@DV?$StrTraitMFC_DLL@DV?$ChTraitsCRT@D@ATL@@@@@ATL@@0_N1HNNHHPAUHWND__@@@Z$13 1001e627 f   MapWnd.obj
 0001:0001d633       __unwindfunclet$?sendRemainTR@CMapWnd@@AAEXV?$CStringT@DV?$StrTraitMFC_DLL@DV?$ChTraitsCRT@D@ATL@@@@@ATL@@0_N1HNNHHPAUHWND__@@@Z$14 1001e633 f   MapWnd.obj
 0001:0001d63c       __unwindfunclet$?sendRemainTR@CMapWnd@@AAEXV?$CStringT@DV?$StrTraitMFC_DLL@DV?$ChTraitsCRT@D@ATL@@@@@ATL@@0_N1HNNHHPAUHWND__@@@Z$15 1001e63c f   MapWnd.obj
 0001:0001d648       __unwindfunclet$?sendRemainTR@CMapWnd@@AAEXV?$CStringT@DV?$StrTraitMFC_DLL@DV?$ChTraitsCRT@D@ATL@@@@@ATL@@0_N1HNNHHPAUHWND__@@@Z$16 1001e648 f   MapWnd.obj
 0001:0001d654       __unwindfunclet$?sendRemainTR@CMapWnd@@AAEXV?$CStringT@DV?$StrTraitMFC_DLL@DV?$ChTraitsCRT@D@ATL@@@@@ATL@@0_N1HNNHHPAUHWND__@@@Z$17 1001e654 f   MapWnd.obj
 0001:0001d660       __unwindfunclet$?sendRemainTR@CMapWnd@@AAEXV?$CStringT@DV?$StrTraitMFC_DLL@DV?$ChTraitsCRT@D@ATL@@@@@ATL@@0_N1HNNHHPAUHWND__@@@Z$18 1001e660 f   MapWnd.obj
 0001:0001d66c       __unwindfunclet$?sendRemainTR@CMapWnd@@AAEXV?$CStringT@DV?$StrTraitMFC_DLL@DV?$ChTraitsCRT@D@ATL@@@@@ATL@@0_N1HNNHHPAUHWND__@@@Z$19 1001e66c f   MapWnd.obj
 0001:0001d678       __unwindfunclet$?sendRemainTR@CMapWnd@@AAEXV?$CStringT@DV?$StrTraitMFC_DLL@DV?$ChTraitsCRT@D@ATL@@@@@ATL@@0_N1HNNHHPAUHWND__@@@Z$20 1001e678 f   MapWnd.obj
 0001:0001d684       __unwindfunclet$?sendRemainTR@CMapWnd@@AAEXV?$CStringT@DV?$StrTraitMFC_DLL@DV?$ChTraitsCRT@D@ATL@@@@@ATL@@0_N1HNNHHPAUHWND__@@@Z$22 1001e684 f   MapWnd.obj
 0001:0001d691       __unwindfunclet$?sendRemainTR@CMapWnd@@AAEXV?$CStringT@DV?$StrTraitMFC_DLL@DV?$ChTraitsCRT@D@ATL@@@@@ATL@@0_N1HNNHHPAUHWND__@@@Z$23 1001e691 f   MapWnd.obj
 0001:0001d69d       __unwindfunclet$?sendRemainTR@CMapWnd@@AAEXV?$CStringT@DV?$StrTraitMFC_DLL@DV?$ChTraitsCRT@D@ATL@@@@@ATL@@0_N1HNNHHPAUHWND__@@@Z$24 1001e69d f   MapWnd.obj
 0001:0001d6a9       __unwindfunclet$?sendRemainTR@CMapWnd@@AAEXV?$CStringT@DV?$StrTraitMFC_DLL@DV?$ChTraitsCRT@D@ATL@@@@@ATL@@0_N1HNNHHPAUHWND__@@@Z$25 1001e6a9 f   MapWnd.obj
 0001:0001d6b5       __unwindfunclet$?sendRemainTR@CMapWnd@@AAEXV?$CStringT@DV?$StrTraitMFC_DLL@DV?$ChTraitsCRT@D@ATL@@@@@ATL@@0_N1HNNHHPAUHWND__@@@Z$27 1001e6b5 f   MapWnd.obj
 0001:0001d6c7       __ehhandler$?sendRemainTR@CMapWnd@@AAEXV?$CStringT@DV?$StrTraitMFC_DLL@DV?$ChTraitsCRT@D@ATL@@@@@ATL@@0_N1HNNHHPAUHWND__@@@Z 1001e6c7 f   MapWnd.obj
 0001:0001d6f1       __unwindfunclet$?sendLawCheg@CMapWnd@@AAEXV?$CStringT@DV?$StrTraitMFC_DLL@DV?$ChTraitsCRT@D@ATL@@@@@ATL@@000PAUHWND__@@@Z$0 1001e6f1 f   MapWnd.obj
 0001:0001d6fa       __unwindfunclet$?sendLawCheg@CMapWnd@@AAEXV?$CStringT@DV?$StrTraitMFC_DLL@DV?$ChTraitsCRT@D@ATL@@@@@ATL@@000PAUHWND__@@@Z$1 1001e6fa f   MapWnd.obj
 0001:0001d703       __unwindfunclet$?sendLawCheg@CMapWnd@@AAEXV?$CStringT@DV?$StrTraitMFC_DLL@DV?$ChTraitsCRT@D@ATL@@@@@ATL@@000PAUHWND__@@@Z$2 1001e703 f   MapWnd.obj
 0001:0001d70c       __unwindfunclet$?sendLawCheg@CMapWnd@@AAEXV?$CStringT@DV?$StrTraitMFC_DLL@DV?$ChTraitsCRT@D@ATL@@@@@ATL@@000PAUHWND__@@@Z$3 1001e70c f   MapWnd.obj
 0001:0001d715       __unwindfunclet$?sendLawCheg@CMapWnd@@AAEXV?$CStringT@DV?$StrTraitMFC_DLL@DV?$ChTraitsCRT@D@ATL@@@@@ATL@@000PAUHWND__@@@Z$4 1001e715 f   MapWnd.obj
 0001:0001d71e       __unwindfunclet$?sendLawCheg@CMapWnd@@AAEXV?$CStringT@DV?$StrTraitMFC_DLL@DV?$ChTraitsCRT@D@ATL@@@@@ATL@@000PAUHWND__@@@Z$5 1001e71e f   MapWnd.obj
 0001:0001d727       __unwindfunclet$?sendLawCheg@CMapWnd@@AAEXV?$CStringT@DV?$StrTraitMFC_DLL@DV?$ChTraitsCRT@D@ATL@@@@@ATL@@000PAUHWND__@@@Z$6 1001e727 f   MapWnd.obj
 0001:0001d735       __ehhandler$?sendLawCheg@CMapWnd@@AAEXV?$CStringT@DV?$StrTraitMFC_DLL@DV?$ChTraitsCRT@D@ATL@@@@@ATL@@000PAUHWND__@@@Z 1001e735 f   MapWnd.obj
 0001:0001d752       __unwindfunclet$?parsingRemainData@CMapWnd@@AAE?AV?$CStringT@DV?$StrTraitMFC_DLL@DV?$ChTraitsCRT@D@ATL@@@@@ATL@@PADHV23@H@Z$0 1001e752 f   MapWnd.obj
 0001:0001d75b       __unwindfunclet$?parsingRemainData@CMapWnd@@AAE?AV?$CStringT@DV?$StrTraitMFC_DLL@DV?$ChTraitsCRT@D@ATL@@@@@ATL@@PADHV23@H@Z$1 1001e75b f   MapWnd.obj
 0001:0001d767       __unwindfunclet$?parsingRemainData@CMapWnd@@AAE?AV?$CStringT@DV?$StrTraitMFC_DLL@DV?$ChTraitsCRT@D@ATL@@@@@ATL@@PADHV23@H@Z$2 1001e767 f   MapWnd.obj
 0001:0001d773       __unwindfunclet$?parsingRemainData@CMapWnd@@AAE?AV?$CStringT@DV?$StrTraitMFC_DLL@DV?$ChTraitsCRT@D@ATL@@@@@ATL@@PADHV23@H@Z$3 1001e773 f   MapWnd.obj
 0001:0001d77f       __unwindfunclet$?parsingRemainData@CMapWnd@@AAE?AV?$CStringT@DV?$StrTraitMFC_DLL@DV?$ChTraitsCRT@D@ATL@@@@@ATL@@PADHV23@H@Z$4 1001e77f f   MapWnd.obj
 0001:0001d78b       __unwindfunclet$?parsingRemainData@CMapWnd@@AAE?AV?$CStringT@DV?$StrTraitMFC_DLL@DV?$ChTraitsCRT@D@ATL@@@@@ATL@@PADHV23@H@Z$5 1001e78b f   MapWnd.obj
 0001:0001d797       __unwindfunclet$?parsingRemainData@CMapWnd@@AAE?AV?$CStringT@DV?$StrTraitMFC_DLL@DV?$ChTraitsCRT@D@ATL@@@@@ATL@@PADHV23@H@Z$6 1001e797 f   MapWnd.obj
 0001:0001d7a3       __unwindfunclet$?parsingRemainData@CMapWnd@@AAE?AV?$CStringT@DV?$StrTraitMFC_DLL@DV?$ChTraitsCRT@D@ATL@@@@@ATL@@PADHV23@H@Z$7 1001e7a3 f   MapWnd.obj
 0001:0001d7af       __unwindfunclet$?parsingRemainData@CMapWnd@@AAE?AV?$CStringT@DV?$StrTraitMFC_DLL@DV?$ChTraitsCRT@D@ATL@@@@@ATL@@PADHV23@H@Z$11 1001e7af f   MapWnd.obj
 0001:0001d7bb       __unwindfunclet$?parsingRemainData@CMapWnd@@AAE?AV?$CStringT@DV?$StrTraitMFC_DLL@DV?$ChTraitsCRT@D@ATL@@@@@ATL@@PADHV23@H@Z$12 1001e7bb f   MapWnd.obj
 0001:0001d7c7       __unwindfunclet$?parsingRemainData@CMapWnd@@AAE?AV?$CStringT@DV?$StrTraitMFC_DLL@DV?$ChTraitsCRT@D@ATL@@@@@ATL@@PADHV23@H@Z$13 1001e7c7 f   MapWnd.obj
 0001:0001d7d3       __unwindfunclet$?parsingRemainData@CMapWnd@@AAE?AV?$CStringT@DV?$StrTraitMFC_DLL@DV?$ChTraitsCRT@D@ATL@@@@@ATL@@PADHV23@H@Z$14 1001e7d3 f   MapWnd.obj
 0001:0001d7df       __unwindfunclet$?parsingRemainData@CMapWnd@@AAE?AV?$CStringT@DV?$StrTraitMFC_DLL@DV?$ChTraitsCRT@D@ATL@@@@@ATL@@PADHV23@H@Z$16 1001e7df f   MapWnd.obj
 0001:0001d7eb       __unwindfunclet$?parsingRemainData@CMapWnd@@AAE?AV?$CStringT@DV?$StrTraitMFC_DLL@DV?$ChTraitsCRT@D@ATL@@@@@ATL@@PADHV23@H@Z$17 1001e7eb f   MapWnd.obj
 0001:0001d7f8       __unwindfunclet$?parsingRemainData@CMapWnd@@AAE?AV?$CStringT@DV?$StrTraitMFC_DLL@DV?$ChTraitsCRT@D@ATL@@@@@ATL@@PADHV23@H@Z$18 1001e7f8 f   MapWnd.obj
 0001:0001d804       __unwindfunclet$?parsingRemainData@CMapWnd@@AAE?AV?$CStringT@DV?$StrTraitMFC_DLL@DV?$ChTraitsCRT@D@ATL@@@@@ATL@@PADHV23@H@Z$20 1001e804 f   MapWnd.obj
 0001:0001d810       __unwindfunclet$?parsingRemainData@CMapWnd@@AAE?AV?$CStringT@DV?$StrTraitMFC_DLL@DV?$ChTraitsCRT@D@ATL@@@@@ATL@@PADHV23@H@Z$21 1001e810 f   MapWnd.obj
 0001:0001d81c       __unwindfunclet$?parsingRemainData@CMapWnd@@AAE?AV?$CStringT@DV?$StrTraitMFC_DLL@DV?$ChTraitsCRT@D@ATL@@@@@ATL@@PADHV23@H@Z$22 1001e81c f   MapWnd.obj
 0001:0001d828       __unwindfunclet$?parsingRemainData@CMapWnd@@AAE?AV?$CStringT@DV?$StrTraitMFC_DLL@DV?$ChTraitsCRT@D@ATL@@@@@ATL@@PADHV23@H@Z$23 1001e828 f   MapWnd.obj
 0001:0001d834       __unwindfunclet$?parsingRemainData@CMapWnd@@AAE?AV?$CStringT@DV?$StrTraitMFC_DLL@DV?$ChTraitsCRT@D@ATL@@@@@ATL@@PADHV23@H@Z$24 1001e834 f   MapWnd.obj
 0001:0001d840       __unwindfunclet$?parsingRemainData@CMapWnd@@AAE?AV?$CStringT@DV?$StrTraitMFC_DLL@DV?$ChTraitsCRT@D@ATL@@@@@ATL@@PADHV23@H@Z$25 1001e840 f   MapWnd.obj
 0001:0001d84c       __unwindfunclet$?parsingRemainData@CMapWnd@@AAE?AV?$CStringT@DV?$StrTraitMFC_DLL@DV?$ChTraitsCRT@D@ATL@@@@@ATL@@PADHV23@H@Z$26 1001e84c f   MapWnd.obj
 0001:0001d858       __unwindfunclet$?parsingRemainData@CMapWnd@@AAE?AV?$CStringT@DV?$StrTraitMFC_DLL@DV?$ChTraitsCRT@D@ATL@@@@@ATL@@PADHV23@H@Z$28 1001e858 f   MapWnd.obj
 0001:0001d864       __unwindfunclet$?parsingRemainData@CMapWnd@@AAE?AV?$CStringT@DV?$StrTraitMFC_DLL@DV?$ChTraitsCRT@D@ATL@@@@@ATL@@PADHV23@H@Z$29 1001e864 f   MapWnd.obj
 0001:0001d870       __unwindfunclet$?parsingRemainData@CMapWnd@@AAE?AV?$CStringT@DV?$StrTraitMFC_DLL@DV?$ChTraitsCRT@D@ATL@@@@@ATL@@PADHV23@H@Z$30 1001e870 f   MapWnd.obj
 0001:0001d882       __ehhandler$?parsingRemainData@CMapWnd@@AAE?AV?$CStringT@DV?$StrTraitMFC_DLL@DV?$ChTraitsCRT@D@ATL@@@@@ATL@@PADHV23@H@Z 1001e882 f   MapWnd.obj
 0001:0001d8ac       __unwindfunclet$?sendToControl@CMapWnd@@AAEXV?$CStringT@DV?$StrTraitMFC_DLL@DV?$ChTraitsCRT@D@ATL@@@@@ATL@@@Z$0 1001e8ac f   MapWnd.obj
 0001:0001d8ba       __ehhandler$?sendToControl@CMapWnd@@AAEXV?$CStringT@DV?$StrTraitMFC_DLL@DV?$ChTraitsCRT@D@ATL@@@@@ATL@@@Z 1001e8ba f   MapWnd.obj
 0001:0001d8d7       __unwindfunclet$?sendToControl@CMapWnd@@AAEXV?$CStringT@DV?$StrTraitMFC_DLL@DV?$ChTraitsCRT@D@ATL@@@@@ATL@@PAVCAccn@@@Z$0 1001e8d7 f   MapWnd.obj
 0001:0001d8e0       __unwindfunclet$?sendToControl@CMapWnd@@AAEXV?$CStringT@DV?$StrTraitMFC_DLL@DV?$ChTraitsCRT@D@ATL@@@@@ATL@@PAVCAccn@@@Z$1 1001e8e0 f   MapWnd.obj
 0001:0001d8e9       __unwindfunclet$?sendToControl@CMapWnd@@AAEXV?$CStringT@DV?$StrTraitMFC_DLL@DV?$ChTraitsCRT@D@ATL@@@@@ATL@@PAVCAccn@@@Z$2 1001e8e9 f   MapWnd.obj
 0001:0001d8f2       __unwindfunclet$?sendToControl@CMapWnd@@AAEXV?$CStringT@DV?$StrTraitMFC_DLL@DV?$ChTraitsCRT@D@ATL@@@@@ATL@@PAVCAccn@@@Z$3 1001e8f2 f   MapWnd.obj
 0001:0001d8fb       __unwindfunclet$?sendToControl@CMapWnd@@AAEXV?$CStringT@DV?$StrTraitMFC_DLL@DV?$ChTraitsCRT@D@ATL@@@@@ATL@@PAVCAccn@@@Z$4 1001e8fb f   MapWnd.obj
 0001:0001d904       __unwindfunclet$?sendToControl@CMapWnd@@AAEXV?$CStringT@DV?$StrTraitMFC_DLL@DV?$ChTraitsCRT@D@ATL@@@@@ATL@@PAVCAccn@@@Z$5 1001e904 f   MapWnd.obj
 0001:0001d90d       __unwindfunclet$?sendToControl@CMapWnd@@AAEXV?$CStringT@DV?$StrTraitMFC_DLL@DV?$ChTraitsCRT@D@ATL@@@@@ATL@@PAVCAccn@@@Z$6 1001e90d f   MapWnd.obj
 0001:0001d916       __unwindfunclet$?sendToControl@CMapWnd@@AAEXV?$CStringT@DV?$StrTraitMFC_DLL@DV?$ChTraitsCRT@D@ATL@@@@@ATL@@PAVCAccn@@@Z$7 1001e916 f   MapWnd.obj
 0001:0001d91f       __unwindfunclet$?sendToControl@CMapWnd@@AAEXV?$CStringT@DV?$StrTraitMFC_DLL@DV?$ChTraitsCRT@D@ATL@@@@@ATL@@PAVCAccn@@@Z$8 1001e91f f   MapWnd.obj
 0001:0001d928       __unwindfunclet$?sendToControl@CMapWnd@@AAEXV?$CStringT@DV?$StrTraitMFC_DLL@DV?$ChTraitsCRT@D@ATL@@@@@ATL@@PAVCAccn@@@Z$9 1001e928 f   MapWnd.obj
 0001:0001d936       __ehhandler$?sendToControl@CMapWnd@@AAEXV?$CStringT@DV?$StrTraitMFC_DLL@DV?$ChTraitsCRT@D@ATL@@@@@ATL@@PAVCAccn@@@Z 1001e936 f   MapWnd.obj
 0001:0001d953       __unwindfunclet$?attachCB@CMapWnd@@AAEXPAUHWND__@@V?$CStringT@DV?$StrTraitMFC_DLL@DV?$ChTraitsCRT@D@ATL@@@@@ATL@@@Z$0 1001e953 f   MapWnd.obj
 0001:0001d95c       __unwindfunclet$?attachCB@CMapWnd@@AAEXPAUHWND__@@V?$CStringT@DV?$StrTraitMFC_DLL@DV?$ChTraitsCRT@D@ATL@@@@@ATL@@@Z$1 1001e95c f   MapWnd.obj
 0001:0001d965       __unwindfunclet$?attachCB@CMapWnd@@AAEXPAUHWND__@@V?$CStringT@DV?$StrTraitMFC_DLL@DV?$ChTraitsCRT@D@ATL@@@@@ATL@@@Z$2 1001e965 f   MapWnd.obj
 0001:0001d973       __ehhandler$?attachCB@CMapWnd@@AAEXPAUHWND__@@V?$CStringT@DV?$StrTraitMFC_DLL@DV?$ChTraitsCRT@D@ATL@@@@@ATL@@@Z 1001e973 f   MapWnd.obj
 0001:0001d990       __unwindfunclet$?detachCB@CMapWnd@@AAEXV?$CStringT@DV?$StrTraitMFC_DLL@DV?$ChTraitsCRT@D@ATL@@@@@ATL@@00@Z$0 1001e990 f   MapWnd.obj
 0001:0001d999       __unwindfunclet$?detachCB@CMapWnd@@AAEXV?$CStringT@DV?$StrTraitMFC_DLL@DV?$ChTraitsCRT@D@ATL@@@@@ATL@@00@Z$1 1001e999 f   MapWnd.obj
 0001:0001d9a2       __unwindfunclet$?detachCB@CMapWnd@@AAEXV?$CStringT@DV?$StrTraitMFC_DLL@DV?$ChTraitsCRT@D@ATL@@@@@ATL@@00@Z$2 1001e9a2 f   MapWnd.obj
 0001:0001d9ab       __unwindfunclet$?detachCB@CMapWnd@@AAEXV?$CStringT@DV?$StrTraitMFC_DLL@DV?$ChTraitsCRT@D@ATL@@@@@ATL@@00@Z$3 1001e9ab f   MapWnd.obj
 0001:0001d9b4       __unwindfunclet$?detachCB@CMapWnd@@AAEXV?$CStringT@DV?$StrTraitMFC_DLL@DV?$ChTraitsCRT@D@ATL@@@@@ATL@@00@Z$4 1001e9b4 f   MapWnd.obj
 0001:0001d9bd       __unwindfunclet$?detachCB@CMapWnd@@AAEXV?$CStringT@DV?$StrTraitMFC_DLL@DV?$ChTraitsCRT@D@ATL@@@@@ATL@@00@Z$5 1001e9bd f   MapWnd.obj
 0001:0001d9c6       __unwindfunclet$?detachCB@CMapWnd@@AAEXV?$CStringT@DV?$StrTraitMFC_DLL@DV?$ChTraitsCRT@D@ATL@@@@@ATL@@00@Z$6 1001e9c6 f   MapWnd.obj
 0001:0001d9d4       __ehhandler$?detachCB@CMapWnd@@AAEXV?$CStringT@DV?$StrTraitMFC_DLL@DV?$ChTraitsCRT@D@ATL@@@@@ATL@@00@Z 1001e9d4 f   MapWnd.obj
 0001:0001d9f1       __unwindfunclet$?sendNContTR@CMapWnd@@AAEXV?$CStringT@DV?$StrTraitMFC_DLL@DV?$ChTraitsCRT@D@ATL@@@@@ATL@@@Z$0 1001e9f1 f   MapWnd.obj
 0001:0001d9fa       __unwindfunclet$?sendNContTR@CMapWnd@@AAEXV?$CStringT@DV?$StrTraitMFC_DLL@DV?$ChTraitsCRT@D@ATL@@@@@ATL@@@Z$1 1001e9fa f   MapWnd.obj
 0001:0001da06       __unwindfunclet$?sendNContTR@CMapWnd@@AAEXV?$CStringT@DV?$StrTraitMFC_DLL@DV?$ChTraitsCRT@D@ATL@@@@@ATL@@@Z$2 1001ea06 f   MapWnd.obj
 0001:0001da12       __unwindfunclet$?sendNContTR@CMapWnd@@AAEXV?$CStringT@DV?$StrTraitMFC_DLL@DV?$ChTraitsCRT@D@ATL@@@@@ATL@@@Z$5 1001ea12 f   MapWnd.obj
 0001:0001da1e       __unwindfunclet$?sendNContTR@CMapWnd@@AAEXV?$CStringT@DV?$StrTraitMFC_DLL@DV?$ChTraitsCRT@D@ATL@@@@@ATL@@@Z$6 1001ea1e f   MapWnd.obj
 0001:0001da2a       __unwindfunclet$?sendNContTR@CMapWnd@@AAEXV?$CStringT@DV?$StrTraitMFC_DLL@DV?$ChTraitsCRT@D@ATL@@@@@ATL@@@Z$7 1001ea2a f   MapWnd.obj
 0001:0001da36       __unwindfunclet$?sendNContTR@CMapWnd@@AAEXV?$CStringT@DV?$StrTraitMFC_DLL@DV?$ChTraitsCRT@D@ATL@@@@@ATL@@@Z$10 1001ea36 f   MapWnd.obj
 0001:0001da42       __unwindfunclet$?sendNContTR@CMapWnd@@AAEXV?$CStringT@DV?$StrTraitMFC_DLL@DV?$ChTraitsCRT@D@ATL@@@@@ATL@@@Z$11 1001ea42 f   MapWnd.obj
 0001:0001da4e       __unwindfunclet$?sendNContTR@CMapWnd@@AAEXV?$CStringT@DV?$StrTraitMFC_DLL@DV?$ChTraitsCRT@D@ATL@@@@@ATL@@@Z$12 1001ea4e f   MapWnd.obj
 0001:0001da5a       __unwindfunclet$?sendNContTR@CMapWnd@@AAEXV?$CStringT@DV?$StrTraitMFC_DLL@DV?$ChTraitsCRT@D@ATL@@@@@ATL@@@Z$13 1001ea5a f   MapWnd.obj
 0001:0001da66       __unwindfunclet$?sendNContTR@CMapWnd@@AAEXV?$CStringT@DV?$StrTraitMFC_DLL@DV?$ChTraitsCRT@D@ATL@@@@@ATL@@@Z$14 1001ea66 f   MapWnd.obj
 0001:0001da72       __unwindfunclet$?sendNContTR@CMapWnd@@AAEXV?$CStringT@DV?$StrTraitMFC_DLL@DV?$ChTraitsCRT@D@ATL@@@@@ATL@@@Z$15 1001ea72 f   MapWnd.obj
 0001:0001da83       __ehhandler$?sendNContTR@CMapWnd@@AAEXV?$CStringT@DV?$StrTraitMFC_DLL@DV?$ChTraitsCRT@D@ATL@@@@@ATL@@@Z 1001ea83 f   MapWnd.obj
 0001:0001daad       __unwindfunclet$?parsingNContData@CMapWnd@@AAEXPAD@Z$0 1001eaad f   MapWnd.obj
 0001:0001dab9       __unwindfunclet$?parsingNContData@CMapWnd@@AAEXPAD@Z$1 1001eab9 f   MapWnd.obj
 0001:0001dac5       __unwindfunclet$?parsingNContData@CMapWnd@@AAEXPAD@Z$2 1001eac5 f   MapWnd.obj
 0001:0001dad1       __unwindfunclet$?parsingNContData@CMapWnd@@AAEXPAD@Z$3 1001ead1 f   MapWnd.obj
 0001:0001dadd       __unwindfunclet$?parsingNContData@CMapWnd@@AAEXPAD@Z$5 1001eadd f   MapWnd.obj
 0001:0001dae9       __unwindfunclet$?parsingNContData@CMapWnd@@AAEXPAD@Z$6 1001eae9 f   MapWnd.obj
 0001:0001daf5       __unwindfunclet$?parsingNContData@CMapWnd@@AAEXPAD@Z$7 1001eaf5 f   MapWnd.obj
 0001:0001db01       __unwindfunclet$?parsingNContData@CMapWnd@@AAEXPAD@Z$8 1001eb01 f   MapWnd.obj
 0001:0001db0d       __unwindfunclet$?parsingNContData@CMapWnd@@AAEXPAD@Z$10 1001eb0d f   MapWnd.obj
 0001:0001db19       __unwindfunclet$?parsingNContData@CMapWnd@@AAEXPAD@Z$11 1001eb19 f   MapWnd.obj
 0001:0001db25       __unwindfunclet$?parsingNContData@CMapWnd@@AAEXPAD@Z$12 1001eb25 f   MapWnd.obj
 0001:0001db36       __ehhandler$?parsingNContData@CMapWnd@@AAEXPAD@Z 1001eb36 f   MapWnd.obj
 0001:0001db60       __unwindfunclet$?parsingRTS@CMapWnd@@AAEXV?$CStringT@DV?$StrTraitMFC_DLL@DV?$ChTraitsCRT@D@ATL@@@@@ATL@@@Z$0 1001eb60 f   MapWnd.obj
 0001:0001db69       __unwindfunclet$?parsingRTS@CMapWnd@@AAEXV?$CStringT@DV?$StrTraitMFC_DLL@DV?$ChTraitsCRT@D@ATL@@@@@ATL@@@Z$2 1001eb69 f   MapWnd.obj
 0001:0001db72       __unwindfunclet$?parsingRTS@CMapWnd@@AAEXV?$CStringT@DV?$StrTraitMFC_DLL@DV?$ChTraitsCRT@D@ATL@@@@@ATL@@@Z$3 1001eb72 f   MapWnd.obj
 0001:0001db7b       __unwindfunclet$?parsingRTS@CMapWnd@@AAEXV?$CStringT@DV?$StrTraitMFC_DLL@DV?$ChTraitsCRT@D@ATL@@@@@ATL@@@Z$4 1001eb7b f   MapWnd.obj
 0001:0001db84       __unwindfunclet$?parsingRTS@CMapWnd@@AAEXV?$CStringT@DV?$StrTraitMFC_DLL@DV?$ChTraitsCRT@D@ATL@@@@@ATL@@@Z$5 1001eb84 f   MapWnd.obj
 0001:0001db8d       __unwindfunclet$?parsingRTS@CMapWnd@@AAEXV?$CStringT@DV?$StrTraitMFC_DLL@DV?$ChTraitsCRT@D@ATL@@@@@ATL@@@Z$6 1001eb8d f   MapWnd.obj
 0001:0001db96       __unwindfunclet$?parsingRTS@CMapWnd@@AAEXV?$CStringT@DV?$StrTraitMFC_DLL@DV?$ChTraitsCRT@D@ATL@@@@@ATL@@@Z$7 1001eb96 f   MapWnd.obj
 0001:0001db9f       __unwindfunclet$?parsingRTS@CMapWnd@@AAEXV?$CStringT@DV?$StrTraitMFC_DLL@DV?$ChTraitsCRT@D@ATL@@@@@ATL@@@Z$8 1001eb9f f   MapWnd.obj
 0001:0001dba8       __unwindfunclet$?parsingRTS@CMapWnd@@AAEXV?$CStringT@DV?$StrTraitMFC_DLL@DV?$ChTraitsCRT@D@ATL@@@@@ATL@@@Z$9 1001eba8 f   MapWnd.obj
 0001:0001dbb1       __unwindfunclet$?parsingRTS@CMapWnd@@AAEXV?$CStringT@DV?$StrTraitMFC_DLL@DV?$ChTraitsCRT@D@ATL@@@@@ATL@@@Z$11 1001ebb1 f   MapWnd.obj
 0001:0001dbba       __unwindfunclet$?parsingRTS@CMapWnd@@AAEXV?$CStringT@DV?$StrTraitMFC_DLL@DV?$ChTraitsCRT@D@ATL@@@@@ATL@@@Z$12 1001ebba f   MapWnd.obj
 0001:0001dbc5       __unwindfunclet$?parsingRTS@CMapWnd@@AAEXV?$CStringT@DV?$StrTraitMFC_DLL@DV?$ChTraitsCRT@D@ATL@@@@@ATL@@@Z$14 1001ebc5 f   MapWnd.obj
 0001:0001dbce       __unwindfunclet$?parsingRTS@CMapWnd@@AAEXV?$CStringT@DV?$StrTraitMFC_DLL@DV?$ChTraitsCRT@D@ATL@@@@@ATL@@@Z$16 1001ebce f   MapWnd.obj
 0001:0001dbda       __unwindfunclet$?parsingRTS@CMapWnd@@AAEXV?$CStringT@DV?$StrTraitMFC_DLL@DV?$ChTraitsCRT@D@ATL@@@@@ATL@@@Z$17 1001ebda f   MapWnd.obj
 0001:0001dbe6       __unwindfunclet$?parsingRTS@CMapWnd@@AAEXV?$CStringT@DV?$StrTraitMFC_DLL@DV?$ChTraitsCRT@D@ATL@@@@@ATL@@@Z$18 1001ebe6 f   MapWnd.obj
 0001:0001dbf2       __unwindfunclet$?parsingRTS@CMapWnd@@AAEXV?$CStringT@DV?$StrTraitMFC_DLL@DV?$ChTraitsCRT@D@ATL@@@@@ATL@@@Z$19 1001ebf2 f   MapWnd.obj
 0001:0001dbfe       __unwindfunclet$?parsingRTS@CMapWnd@@AAEXV?$CStringT@DV?$StrTraitMFC_DLL@DV?$ChTraitsCRT@D@ATL@@@@@ATL@@@Z$21 1001ebfe f   MapWnd.obj
 0001:0001dc07       __unwindfunclet$?parsingRTS@CMapWnd@@AAEXV?$CStringT@DV?$StrTraitMFC_DLL@DV?$ChTraitsCRT@D@ATL@@@@@ATL@@@Z$22 1001ec07 f   MapWnd.obj
 0001:0001dc13       __unwindfunclet$?parsingRTS@CMapWnd@@AAEXV?$CStringT@DV?$StrTraitMFC_DLL@DV?$ChTraitsCRT@D@ATL@@@@@ATL@@@Z$23 1001ec13 f   MapWnd.obj
 0001:0001dc1f       __unwindfunclet$?parsingRTS@CMapWnd@@AAEXV?$CStringT@DV?$StrTraitMFC_DLL@DV?$ChTraitsCRT@D@ATL@@@@@ATL@@@Z$25 1001ec1f f   MapWnd.obj
 0001:0001dc2b       __unwindfunclet$?parsingRTS@CMapWnd@@AAEXV?$CStringT@DV?$StrTraitMFC_DLL@DV?$ChTraitsCRT@D@ATL@@@@@ATL@@@Z$26 1001ec2b f   MapWnd.obj
 0001:0001dc37       __unwindfunclet$?parsingRTS@CMapWnd@@AAEXV?$CStringT@DV?$StrTraitMFC_DLL@DV?$ChTraitsCRT@D@ATL@@@@@ATL@@@Z$28 1001ec37 f   MapWnd.obj
 0001:0001dc40       __unwindfunclet$?parsingRTS@CMapWnd@@AAEXV?$CStringT@DV?$StrTraitMFC_DLL@DV?$ChTraitsCRT@D@ATL@@@@@ATL@@@Z$29 1001ec40 f   MapWnd.obj
 0001:0001dc4c       __unwindfunclet$?parsingRTS@CMapWnd@@AAEXV?$CStringT@DV?$StrTraitMFC_DLL@DV?$ChTraitsCRT@D@ATL@@@@@ATL@@@Z$31 1001ec4c f   MapWnd.obj
 0001:0001dc55       __unwindfunclet$?parsingRTS@CMapWnd@@AAEXV?$CStringT@DV?$StrTraitMFC_DLL@DV?$ChTraitsCRT@D@ATL@@@@@ATL@@@Z$32 1001ec55 f   MapWnd.obj
 0001:0001dc5e       __unwindfunclet$?parsingRTS@CMapWnd@@AAEXV?$CStringT@DV?$StrTraitMFC_DLL@DV?$ChTraitsCRT@D@ATL@@@@@ATL@@@Z$33 1001ec5e f   MapWnd.obj
 0001:0001dc6a       __unwindfunclet$?parsingRTS@CMapWnd@@AAEXV?$CStringT@DV?$StrTraitMFC_DLL@DV?$ChTraitsCRT@D@ATL@@@@@ATL@@@Z$34 1001ec6a f   MapWnd.obj
 0001:0001dc76       __unwindfunclet$?parsingRTS@CMapWnd@@AAEXV?$CStringT@DV?$StrTraitMFC_DLL@DV?$ChTraitsCRT@D@ATL@@@@@ATL@@@Z$37 1001ec76 f   MapWnd.obj
 0001:0001dc82       __unwindfunclet$?parsingRTS@CMapWnd@@AAEXV?$CStringT@DV?$StrTraitMFC_DLL@DV?$ChTraitsCRT@D@ATL@@@@@ATL@@@Z$38 1001ec82 f   MapWnd.obj
 0001:0001dc93       __ehhandler$?parsingRTS@CMapWnd@@AAEXV?$CStringT@DV?$StrTraitMFC_DLL@DV?$ChTraitsCRT@D@ATL@@@@@ATL@@@Z 1001ec93 f   MapWnd.obj
 0001:0001dcb3       __unwindfunclet$?parsingRTSx@CMapWnd@@AAEXPAU_alertR@@@Z$0 1001ecb3 f   MapWnd.obj
 0001:0001dcbc       __unwindfunclet$?parsingRTSx@CMapWnd@@AAEXPAU_alertR@@@Z$1 1001ecbc f   MapWnd.obj
 0001:0001dcc5       __unwindfunclet$?parsingRTSx@CMapWnd@@AAEXPAU_alertR@@@Z$2 1001ecc5 f   MapWnd.obj
 0001:0001dcce       __unwindfunclet$?parsingRTSx@CMapWnd@@AAEXPAU_alertR@@@Z$3 1001ecce f   MapWnd.obj
 0001:0001dcd7       __unwindfunclet$?parsingRTSx@CMapWnd@@AAEXPAU_alertR@@@Z$4 1001ecd7 f   MapWnd.obj
 0001:0001dce0       __unwindfunclet$?parsingRTSx@CMapWnd@@AAEXPAU_alertR@@@Z$5 1001ece0 f   MapWnd.obj
 0001:0001dce9       __unwindfunclet$?parsingRTSx@CMapWnd@@AAEXPAU_alertR@@@Z$6 1001ece9 f   MapWnd.obj
 0001:0001dcf2       __unwindfunclet$?parsingRTSx@CMapWnd@@AAEXPAU_alertR@@@Z$7 1001ecf2 f   MapWnd.obj
 0001:0001dcfe       __unwindfunclet$?parsingRTSx@CMapWnd@@AAEXPAU_alertR@@@Z$8 1001ecfe f   MapWnd.obj
 0001:0001dd0a       __unwindfunclet$?parsingRTSx@CMapWnd@@AAEXPAU_alertR@@@Z$9 1001ed0a f   MapWnd.obj
 0001:0001dd16       __unwindfunclet$?parsingRTSx@CMapWnd@@AAEXPAU_alertR@@@Z$11 1001ed16 f   MapWnd.obj
 0001:0001dd1f       __unwindfunclet$?parsingRTSx@CMapWnd@@AAEXPAU_alertR@@@Z$12 1001ed1f f   MapWnd.obj
 0001:0001dd2b       __unwindfunclet$?parsingRTSx@CMapWnd@@AAEXPAU_alertR@@@Z$13 1001ed2b f   MapWnd.obj
 0001:0001dd37       __unwindfunclet$?parsingRTSx@CMapWnd@@AAEXPAU_alertR@@@Z$15 1001ed37 f   MapWnd.obj
 0001:0001dd43       __unwindfunclet$?parsingRTSx@CMapWnd@@AAEXPAU_alertR@@@Z$16 1001ed43 f   MapWnd.obj
 0001:0001dd4f       __unwindfunclet$?parsingRTSx@CMapWnd@@AAEXPAU_alertR@@@Z$18 1001ed4f f   MapWnd.obj
 0001:0001dd58       __unwindfunclet$?parsingRTSx@CMapWnd@@AAEXPAU_alertR@@@Z$19 1001ed58 f   MapWnd.obj
 0001:0001dd64       __unwindfunclet$?parsingRTSx@CMapWnd@@AAEXPAU_alertR@@@Z$21 1001ed64 f   MapWnd.obj
 0001:0001dd6d       __unwindfunclet$?parsingRTSx@CMapWnd@@AAEXPAU_alertR@@@Z$22 1001ed6d f   MapWnd.obj
 0001:0001dd76       __unwindfunclet$?parsingRTSx@CMapWnd@@AAEXPAU_alertR@@@Z$23 1001ed76 f   MapWnd.obj
 0001:0001dd82       __unwindfunclet$?parsingRTSx@CMapWnd@@AAEXPAU_alertR@@@Z$24 1001ed82 f   MapWnd.obj
 0001:0001dd8e       __unwindfunclet$?parsingRTSx@CMapWnd@@AAEXPAU_alertR@@@Z$27 1001ed8e f   MapWnd.obj
 0001:0001dd9a       __unwindfunclet$?parsingRTSx@CMapWnd@@AAEXPAU_alertR@@@Z$28 1001ed9a f   MapWnd.obj
 0001:0001ddab       __ehhandler$?parsingRTSx@CMapWnd@@AAEXPAU_alertR@@@Z 1001edab f   MapWnd.obj
 0001:0001ddcb       __unwindfunclet$?parsingNotice@CMapWnd@@AAE?AV?$CStringT@DV?$StrTraitMFC_DLL@DV?$ChTraitsCRT@D@ATL@@@@@ATL@@V23@@Z$0 1001edcb f   MapWnd.obj
 0001:0001ddd4       __unwindfunclet$?parsingNotice@CMapWnd@@AAE?AV?$CStringT@DV?$StrTraitMFC_DLL@DV?$ChTraitsCRT@D@ATL@@@@@ATL@@V23@@Z$2 1001edd4 f   MapWnd.obj
 0001:0001dddd       __unwindfunclet$?parsingNotice@CMapWnd@@AAE?AV?$CStringT@DV?$StrTraitMFC_DLL@DV?$ChTraitsCRT@D@ATL@@@@@ATL@@V23@@Z$3 1001eddd f   MapWnd.obj
 0001:0001dde6       __unwindfunclet$?parsingNotice@CMapWnd@@AAE?AV?$CStringT@DV?$StrTraitMFC_DLL@DV?$ChTraitsCRT@D@ATL@@@@@ATL@@V23@@Z$4 1001ede6 f   MapWnd.obj
 0001:0001ddef       __unwindfunclet$?parsingNotice@CMapWnd@@AAE?AV?$CStringT@DV?$StrTraitMFC_DLL@DV?$ChTraitsCRT@D@ATL@@@@@ATL@@V23@@Z$5 1001edef f   MapWnd.obj
 0001:0001ddf8       __unwindfunclet$?parsingNotice@CMapWnd@@AAE?AV?$CStringT@DV?$StrTraitMFC_DLL@DV?$ChTraitsCRT@D@ATL@@@@@ATL@@V23@@Z$6 1001edf8 f   MapWnd.obj
 0001:0001de01       __unwindfunclet$?parsingNotice@CMapWnd@@AAE?AV?$CStringT@DV?$StrTraitMFC_DLL@DV?$ChTraitsCRT@D@ATL@@@@@ATL@@V23@@Z$7 1001ee01 f   MapWnd.obj
 0001:0001de0a       __unwindfunclet$?parsingNotice@CMapWnd@@AAE?AV?$CStringT@DV?$StrTraitMFC_DLL@DV?$ChTraitsCRT@D@ATL@@@@@ATL@@V23@@Z$8 1001ee0a f   MapWnd.obj
 0001:0001de13       __unwindfunclet$?parsingNotice@CMapWnd@@AAE?AV?$CStringT@DV?$StrTraitMFC_DLL@DV?$ChTraitsCRT@D@ATL@@@@@ATL@@V23@@Z$9 1001ee13 f   MapWnd.obj
 0001:0001de1c       __unwindfunclet$?parsingNotice@CMapWnd@@AAE?AV?$CStringT@DV?$StrTraitMFC_DLL@DV?$ChTraitsCRT@D@ATL@@@@@ATL@@V23@@Z$10 1001ee1c f   MapWnd.obj
 0001:0001de25       __unwindfunclet$?parsingNotice@CMapWnd@@AAE?AV?$CStringT@DV?$StrTraitMFC_DLL@DV?$ChTraitsCRT@D@ATL@@@@@ATL@@V23@@Z$11 1001ee25 f   MapWnd.obj
 0001:0001de2e       __unwindfunclet$?parsingNotice@CMapWnd@@AAE?AV?$CStringT@DV?$StrTraitMFC_DLL@DV?$ChTraitsCRT@D@ATL@@@@@ATL@@V23@@Z$12 1001ee2e f   MapWnd.obj
 0001:0001de37       __unwindfunclet$?parsingNotice@CMapWnd@@AAE?AV?$CStringT@DV?$StrTraitMFC_DLL@DV?$ChTraitsCRT@D@ATL@@@@@ATL@@V23@@Z$14 1001ee37 f   MapWnd.obj
 0001:0001de43       __unwindfunclet$?parsingNotice@CMapWnd@@AAE?AV?$CStringT@DV?$StrTraitMFC_DLL@DV?$ChTraitsCRT@D@ATL@@@@@ATL@@V23@@Z$16 1001ee43 f   MapWnd.obj
 0001:0001de4f       __unwindfunclet$?parsingNotice@CMapWnd@@AAE?AV?$CStringT@DV?$StrTraitMFC_DLL@DV?$ChTraitsCRT@D@ATL@@@@@ATL@@V23@@Z$18 1001ee4f f   MapWnd.obj
 0001:0001de5b       __unwindfunclet$?parsingNotice@CMapWnd@@AAE?AV?$CStringT@DV?$StrTraitMFC_DLL@DV?$ChTraitsCRT@D@ATL@@@@@ATL@@V23@@Z$21 1001ee5b f   MapWnd.obj
 0001:0001de66       __unwindfunclet$?parsingNotice@CMapWnd@@AAE?AV?$CStringT@DV?$StrTraitMFC_DLL@DV?$ChTraitsCRT@D@ATL@@@@@ATL@@V23@@Z$22 1001ee66 f   MapWnd.obj
 0001:0001de6f       __unwindfunclet$?parsingNotice@CMapWnd@@AAE?AV?$CStringT@DV?$StrTraitMFC_DLL@DV?$ChTraitsCRT@D@ATL@@@@@ATL@@V23@@Z$23 1001ee6f f   MapWnd.obj
 0001:0001de78       __unwindfunclet$?parsingNotice@CMapWnd@@AAE?AV?$CStringT@DV?$StrTraitMFC_DLL@DV?$ChTraitsCRT@D@ATL@@@@@ATL@@V23@@Z$24 1001ee78 f   MapWnd.obj
 0001:0001de81       __unwindfunclet$?parsingNotice@CMapWnd@@AAE?AV?$CStringT@DV?$StrTraitMFC_DLL@DV?$ChTraitsCRT@D@ATL@@@@@ATL@@V23@@Z$26 1001ee81 f   MapWnd.obj
 0001:0001de8d       __unwindfunclet$?parsingNotice@CMapWnd@@AAE?AV?$CStringT@DV?$StrTraitMFC_DLL@DV?$ChTraitsCRT@D@ATL@@@@@ATL@@V23@@Z$28 1001ee8d f   MapWnd.obj
 0001:0001de99       __unwindfunclet$?parsingNotice@CMapWnd@@AAE?AV?$CStringT@DV?$StrTraitMFC_DLL@DV?$ChTraitsCRT@D@ATL@@@@@ATL@@V23@@Z$31 1001ee99 f   MapWnd.obj
 0001:0001dea2       __unwindfunclet$?parsingNotice@CMapWnd@@AAE?AV?$CStringT@DV?$StrTraitMFC_DLL@DV?$ChTraitsCRT@D@ATL@@@@@ATL@@V23@@Z$32 1001eea2 f   MapWnd.obj
 0001:0001deae       __unwindfunclet$?parsingNotice@CMapWnd@@AAE?AV?$CStringT@DV?$StrTraitMFC_DLL@DV?$ChTraitsCRT@D@ATL@@@@@ATL@@V23@@Z$33 1001eeae f   MapWnd.obj
 0001:0001deba       __unwindfunclet$?parsingNotice@CMapWnd@@AAE?AV?$CStringT@DV?$StrTraitMFC_DLL@DV?$ChTraitsCRT@D@ATL@@@@@ATL@@V23@@Z$35 1001eeba f   MapWnd.obj
 0001:0001dec6       __unwindfunclet$?parsingNotice@CMapWnd@@AAE?AV?$CStringT@DV?$StrTraitMFC_DLL@DV?$ChTraitsCRT@D@ATL@@@@@ATL@@V23@@Z$36 1001eec6 f   MapWnd.obj
 0001:0001ded2       __unwindfunclet$?parsingNotice@CMapWnd@@AAE?AV?$CStringT@DV?$StrTraitMFC_DLL@DV?$ChTraitsCRT@D@ATL@@@@@ATL@@V23@@Z$37 1001eed2 f   MapWnd.obj
 0001:0001dede       __unwindfunclet$?parsingNotice@CMapWnd@@AAE?AV?$CStringT@DV?$StrTraitMFC_DLL@DV?$ChTraitsCRT@D@ATL@@@@@ATL@@V23@@Z$39 1001eede f   MapWnd.obj
 0001:0001deea       __unwindfunclet$?parsingNotice@CMapWnd@@AAE?AV?$CStringT@DV?$StrTraitMFC_DLL@DV?$ChTraitsCRT@D@ATL@@@@@ATL@@V23@@Z$40 1001eeea f   MapWnd.obj
 0001:0001def7       __unwindfunclet$?parsingNotice@CMapWnd@@AAE?AV?$CStringT@DV?$StrTraitMFC_DLL@DV?$ChTraitsCRT@D@ATL@@@@@ATL@@V23@@Z$42 1001eef7 f   MapWnd.obj
 0001:0001df03       __unwindfunclet$?parsingNotice@CMapWnd@@AAE?AV?$CStringT@DV?$StrTraitMFC_DLL@DV?$ChTraitsCRT@D@ATL@@@@@ATL@@V23@@Z$43 1001ef03 f   MapWnd.obj
 0001:0001df0f       __unwindfunclet$?parsingNotice@CMapWnd@@AAE?AV?$CStringT@DV?$StrTraitMFC_DLL@DV?$ChTraitsCRT@D@ATL@@@@@ATL@@V23@@Z$45 1001ef0f f   MapWnd.obj
 0001:0001df1b       __unwindfunclet$?parsingNotice@CMapWnd@@AAE?AV?$CStringT@DV?$StrTraitMFC_DLL@DV?$ChTraitsCRT@D@ATL@@@@@ATL@@V23@@Z$46 1001ef1b f   MapWnd.obj
 0001:0001df27       __unwindfunclet$?parsingNotice@CMapWnd@@AAE?AV?$CStringT@DV?$StrTraitMFC_DLL@DV?$ChTraitsCRT@D@ATL@@@@@ATL@@V23@@Z$48 1001ef27 f   MapWnd.obj
 0001:0001df33       __unwindfunclet$?parsingNotice@CMapWnd@@AAE?AV?$CStringT@DV?$StrTraitMFC_DLL@DV?$ChTraitsCRT@D@ATL@@@@@ATL@@V23@@Z$50 1001ef33 f   MapWnd.obj
 0001:0001df3f       __unwindfunclet$?parsingNotice@CMapWnd@@AAE?AV?$CStringT@DV?$StrTraitMFC_DLL@DV?$ChTraitsCRT@D@ATL@@@@@ATL@@V23@@Z$51 1001ef3f f   MapWnd.obj
 0001:0001df4b       __unwindfunclet$?parsingNotice@CMapWnd@@AAE?AV?$CStringT@DV?$StrTraitMFC_DLL@DV?$ChTraitsCRT@D@ATL@@@@@ATL@@V23@@Z$52 1001ef4b f   MapWnd.obj
 0001:0001df54       __unwindfunclet$?parsingNotice@CMapWnd@@AAE?AV?$CStringT@DV?$StrTraitMFC_DLL@DV?$ChTraitsCRT@D@ATL@@@@@ATL@@V23@@Z$53 1001ef54 f   MapWnd.obj
 0001:0001df60       __unwindfunclet$?parsingNotice@CMapWnd@@AAE?AV?$CStringT@DV?$StrTraitMFC_DLL@DV?$ChTraitsCRT@D@ATL@@@@@ATL@@V23@@Z$54 1001ef60 f   MapWnd.obj
 0001:0001df6c       __unwindfunclet$?parsingNotice@CMapWnd@@AAE?AV?$CStringT@DV?$StrTraitMFC_DLL@DV?$ChTraitsCRT@D@ATL@@@@@ATL@@V23@@Z$55 1001ef6c f   MapWnd.obj
 0001:0001df78       __unwindfunclet$?parsingNotice@CMapWnd@@AAE?AV?$CStringT@DV?$StrTraitMFC_DLL@DV?$ChTraitsCRT@D@ATL@@@@@ATL@@V23@@Z$57 1001ef78 f   MapWnd.obj
 0001:0001df84       __unwindfunclet$?parsingNotice@CMapWnd@@AAE?AV?$CStringT@DV?$StrTraitMFC_DLL@DV?$ChTraitsCRT@D@ATL@@@@@ATL@@V23@@Z$58 1001ef84 f   MapWnd.obj
 0001:0001df90       __unwindfunclet$?parsingNotice@CMapWnd@@AAE?AV?$CStringT@DV?$StrTraitMFC_DLL@DV?$ChTraitsCRT@D@ATL@@@@@ATL@@V23@@Z$59 1001ef90 f   MapWnd.obj
 0001:0001df9c       __unwindfunclet$?parsingNotice@CMapWnd@@AAE?AV?$CStringT@DV?$StrTraitMFC_DLL@DV?$ChTraitsCRT@D@ATL@@@@@ATL@@V23@@Z$61 1001ef9c f   MapWnd.obj
 0001:0001dfa8       __unwindfunclet$?parsingNotice@CMapWnd@@AAE?AV?$CStringT@DV?$StrTraitMFC_DLL@DV?$ChTraitsCRT@D@ATL@@@@@ATL@@V23@@Z$62 1001efa8 f   MapWnd.obj
 0001:0001dfb4       __unwindfunclet$?parsingNotice@CMapWnd@@AAE?AV?$CStringT@DV?$StrTraitMFC_DLL@DV?$ChTraitsCRT@D@ATL@@@@@ATL@@V23@@Z$63 1001efb4 f   MapWnd.obj
 0001:0001dfc1       __unwindfunclet$?parsingNotice@CMapWnd@@AAE?AV?$CStringT@DV?$StrTraitMFC_DLL@DV?$ChTraitsCRT@D@ATL@@@@@ATL@@V23@@Z$67 1001efc1 f   MapWnd.obj
 0001:0001dfcd       __unwindfunclet$?parsingNotice@CMapWnd@@AAE?AV?$CStringT@DV?$StrTraitMFC_DLL@DV?$ChTraitsCRT@D@ATL@@@@@ATL@@V23@@Z$68 1001efcd f   MapWnd.obj
 0001:0001dfd9       __unwindfunclet$?parsingNotice@CMapWnd@@AAE?AV?$CStringT@DV?$StrTraitMFC_DLL@DV?$ChTraitsCRT@D@ATL@@@@@ATL@@V23@@Z$71 1001efd9 f   MapWnd.obj
 0001:0001dfe5       __unwindfunclet$?parsingNotice@CMapWnd@@AAE?AV?$CStringT@DV?$StrTraitMFC_DLL@DV?$ChTraitsCRT@D@ATL@@@@@ATL@@V23@@Z$73 1001efe5 f   MapWnd.obj
 0001:0001dfee       __unwindfunclet$?parsingNotice@CMapWnd@@AAE?AV?$CStringT@DV?$StrTraitMFC_DLL@DV?$ChTraitsCRT@D@ATL@@@@@ATL@@V23@@Z$74 1001efee f   MapWnd.obj
 0001:0001dffa       __unwindfunclet$?parsingNotice@CMapWnd@@AAE?AV?$CStringT@DV?$StrTraitMFC_DLL@DV?$ChTraitsCRT@D@ATL@@@@@ATL@@V23@@Z$75 1001effa f   MapWnd.obj
 0001:0001e006       __unwindfunclet$?parsingNotice@CMapWnd@@AAE?AV?$CStringT@DV?$StrTraitMFC_DLL@DV?$ChTraitsCRT@D@ATL@@@@@ATL@@V23@@Z$78 1001f006 f   MapWnd.obj
 0001:0001e012       __unwindfunclet$?parsingNotice@CMapWnd@@AAE?AV?$CStringT@DV?$StrTraitMFC_DLL@DV?$ChTraitsCRT@D@ATL@@@@@ATL@@V23@@Z$79 1001f012 f   MapWnd.obj
 0001:0001e023       __ehhandler$?parsingNotice@CMapWnd@@AAE?AV?$CStringT@DV?$StrTraitMFC_DLL@DV?$ChTraitsCRT@D@ATL@@@@@ATL@@V23@@Z 1001f023 f   MapWnd.obj
 0001:0001e043       __unwindfunclet$?getRemainFee@CMapWnd@@AAEHXZ$1 1001f043 f   MapWnd.obj
 0001:0001e04c       __unwindfunclet$?getRemainFee@CMapWnd@@AAEHXZ$3 1001f04c f   MapWnd.obj
 0001:0001e055       __unwindfunclet$?getRemainFee@CMapWnd@@AAEHXZ$4 1001f055 f   MapWnd.obj
 0001:0001e063       __ehhandler$?getRemainFee@CMapWnd@@AAEHXZ 1001f063 f   MapWnd.obj
 0001:0001e080       __unwindfunclet$?getKey@CMapWnd@@AAE?AV?$CStringT@DV?$StrTraitMFC_DLL@DV?$ChTraitsCRT@D@ATL@@@@@ATL@@_NV23@111H@Z$0 1001f080 f   MapWnd.obj
 0001:0001e089       __unwindfunclet$?getKey@CMapWnd@@AAE?AV?$CStringT@DV?$StrTraitMFC_DLL@DV?$ChTraitsCRT@D@ATL@@@@@ATL@@_NV23@111H@Z$1 1001f089 f   MapWnd.obj
 0001:0001e092       __unwindfunclet$?getKey@CMapWnd@@AAE?AV?$CStringT@DV?$StrTraitMFC_DLL@DV?$ChTraitsCRT@D@ATL@@@@@ATL@@_NV23@111H@Z$2 1001f092 f   MapWnd.obj
 0001:0001e09b       __unwindfunclet$?getKey@CMapWnd@@AAE?AV?$CStringT@DV?$StrTraitMFC_DLL@DV?$ChTraitsCRT@D@ATL@@@@@ATL@@_NV23@111H@Z$3 1001f09b f   MapWnd.obj
 0001:0001e0a4       __unwindfunclet$?getKey@CMapWnd@@AAE?AV?$CStringT@DV?$StrTraitMFC_DLL@DV?$ChTraitsCRT@D@ATL@@@@@ATL@@_NV23@111H@Z$5 1001f0a4 f   MapWnd.obj
 0001:0001e0b2       __ehhandler$?getKey@CMapWnd@@AAE?AV?$CStringT@DV?$StrTraitMFC_DLL@DV?$ChTraitsCRT@D@ATL@@@@@ATL@@_NV23@111H@Z 1001f0b2 f   MapWnd.obj
 0001:0001e0cf       __unwindfunclet$?ledgerTR@CMapWnd@@AAE?AV?$CStringT@DV?$StrTraitMFC_DLL@DV?$ChTraitsCRT@D@ATL@@@@@ATL@@V23@00@Z$0 1001f0cf f   MapWnd.obj
 0001:0001e0d8       __unwindfunclet$?ledgerTR@CMapWnd@@AAE?AV?$CStringT@DV?$StrTraitMFC_DLL@DV?$ChTraitsCRT@D@ATL@@@@@ATL@@V23@00@Z$1 1001f0d8 f   MapWnd.obj
 0001:0001e0e1       __unwindfunclet$?ledgerTR@CMapWnd@@AAE?AV?$CStringT@DV?$StrTraitMFC_DLL@DV?$ChTraitsCRT@D@ATL@@@@@ATL@@V23@00@Z$2 1001f0e1 f   MapWnd.obj
 0001:0001e0ea       __unwindfunclet$?ledgerTR@CMapWnd@@AAE?AV?$CStringT@DV?$StrTraitMFC_DLL@DV?$ChTraitsCRT@D@ATL@@@@@ATL@@V23@00@Z$3 1001f0ea f   MapWnd.obj
 0001:0001e0f6       __unwindfunclet$?ledgerTR@CMapWnd@@AAE?AV?$CStringT@DV?$StrTraitMFC_DLL@DV?$ChTraitsCRT@D@ATL@@@@@ATL@@V23@00@Z$5 1001f0f6 f   MapWnd.obj
 0001:0001e107       __ehhandler$?ledgerTR@CMapWnd@@AAE?AV?$CStringT@DV?$StrTraitMFC_DLL@DV?$ChTraitsCRT@D@ATL@@@@@ATL@@V23@00@Z 1001f107 f   MapWnd.obj
 0001:0001e131       __unwindfunclet$?openView@CMapWnd@@AAEHHV?$CStringT@DV?$StrTraitMFC_DLL@DV?$ChTraitsCRT@D@ATL@@@@@ATL@@@Z$0 1001f131 f   MapWnd.obj
 0001:0001e13f       __ehhandler$?openView@CMapWnd@@AAEHHV?$CStringT@DV?$StrTraitMFC_DLL@DV?$ChTraitsCRT@D@ATL@@@@@ATL@@@Z 1001f13f f   MapWnd.obj
 0001:0001e15c       __unwindfunclet$?parser@CMapWnd@@AAE?AV?$CStringT@DV?$StrTraitMFC_DLL@DV?$ChTraitsCRT@D@ATL@@@@@ATL@@AAV23@V23@@Z$0 1001f15c f   MapWnd.obj
 0001:0001e165       __unwindfunclet$?parser@CMapWnd@@AAE?AV?$CStringT@DV?$StrTraitMFC_DLL@DV?$ChTraitsCRT@D@ATL@@@@@ATL@@AAV23@V23@@Z$1 1001f165 f   MapWnd.obj
 0001:0001e16e       __unwindfunclet$?parser@CMapWnd@@AAE?AV?$CStringT@DV?$StrTraitMFC_DLL@DV?$ChTraitsCRT@D@ATL@@@@@ATL@@AAV23@V23@@Z$3 1001f16e f   MapWnd.obj
 0001:0001e177       __unwindfunclet$?parser@CMapWnd@@AAE?AV?$CStringT@DV?$StrTraitMFC_DLL@DV?$ChTraitsCRT@D@ATL@@@@@ATL@@AAV23@V23@@Z$4 1001f177 f   MapWnd.obj
 0001:0001e185       __ehhandler$?parser@CMapWnd@@AAE?AV?$CStringT@DV?$StrTraitMFC_DLL@DV?$ChTraitsCRT@D@ATL@@@@@ATL@@AAV23@V23@@Z 1001f185 f   MapWnd.obj
 0001:0001e1a2       __unwindfunclet$?getTime@CMapWnd@@AAE?AV?$CStringT@DV?$StrTraitMFC_DLL@DV?$ChTraitsCRT@D@ATL@@@@@ATL@@XZ$0 1001f1a2 f   MapWnd.obj
 0001:0001e1b0       __ehhandler$?getTime@CMapWnd@@AAE?AV?$CStringT@DV?$StrTraitMFC_DLL@DV?$ChTraitsCRT@D@ATL@@@@@ATL@@XZ 1001f1b0 f   MapWnd.obj
 0001:0001e1cd       __unwindfunclet$?variant@CMapWnd@@AAE?AV?$CStringT@DV?$StrTraitMFC_DLL@DV?$ChTraitsCRT@D@ATL@@@@@ATL@@HV23@@Z$0 1001f1cd f   MapWnd.obj
 0001:0001e1db       __ehhandler$?variant@CMapWnd@@AAE?AV?$CStringT@DV?$StrTraitMFC_DLL@DV?$ChTraitsCRT@D@ATL@@@@@ATL@@HV23@@Z 1001f1db f   MapWnd.obj
 0001:0001e1f8       __unwindfunclet$?removeAccn@CMapWnd@@AAEXV?$CStringT@DV?$StrTraitMFC_DLL@DV?$ChTraitsCRT@D@ATL@@@@@ATL@@@Z$0 1001f1f8 f   MapWnd.obj
 0001:0001e206       __ehhandler$?removeAccn@CMapWnd@@AAEXV?$CStringT@DV?$StrTraitMFC_DLL@DV?$ChTraitsCRT@D@ATL@@@@@ATL@@@Z 1001f206 f   MapWnd.obj
 0001:0001e223       __unwindfunclet$?removeRemain@CMapWnd@@AAEXPAVCAccn@@@Z$0 1001f223 f   MapWnd.obj
 0001:0001e231       __ehhandler$?removeRemain@CMapWnd@@AAEXPAVCAccn@@@Z 1001f231 f   MapWnd.obj
 0001:0001e24e       __unwindfunclet$?LoadCode@CMapWnd@@QAEHXZ$1 1001f24e f   MapWnd.obj
 0001:0001e257       __unwindfunclet$?LoadCode@CMapWnd@@QAEHXZ$2 1001f257 f   MapWnd.obj
 0001:0001e260       __unwindfunclet$?LoadCode@CMapWnd@@QAEHXZ$3 1001f260 f   MapWnd.obj
 0001:0001e26b       __unwindfunclet$?LoadCode@CMapWnd@@QAEHXZ$5 1001f26b f   MapWnd.obj
 0001:0001e274       __unwindfunclet$?LoadCode@CMapWnd@@QAEHXZ$6 1001f274 f   MapWnd.obj
 0001:0001e27d       __unwindfunclet$?LoadCode@CMapWnd@@QAEHXZ$7 1001f27d f   MapWnd.obj
 0001:0001e28b       __ehhandler$?LoadCode@CMapWnd@@QAEHXZ 1001f28b f   MapWnd.obj
 0001:0001e2a8       __unwindfunclet$?Is3RDCode@CMapWnd@@QAE_NV?$CStringT@DV?$StrTraitMFC_DLL@DV?$ChTraitsCRT@D@ATL@@@@@ATL@@@Z$0 1001f2a8 f   MapWnd.obj
 0001:0001e2b1       __unwindfunclet$?Is3RDCode@CMapWnd@@QAE_NV?$CStringT@DV?$StrTraitMFC_DLL@DV?$ChTraitsCRT@D@ATL@@@@@ATL@@@Z$1 1001f2b1 f   MapWnd.obj
 0001:0001e2bf       __ehhandler$?Is3RDCode@CMapWnd@@QAE_NV?$CStringT@DV?$StrTraitMFC_DLL@DV?$ChTraitsCRT@D@ATL@@@@@ATL@@@Z 1001f2bf f   MapWnd.obj
 0001:0001e2dc       __unwindfunclet$?sendTR@CMapWnd@@QAEHV?$CStringT@DV?$StrTraitMFC_DLL@DV?$ChTraitsCRT@D@ATL@@@@@ATL@@0HH0@Z$0 1001f2dc f   MapWnd.obj
 0001:0001e2e5       __unwindfunclet$?sendTR@CMapWnd@@QAEHV?$CStringT@DV?$StrTraitMFC_DLL@DV?$ChTraitsCRT@D@ATL@@@@@ATL@@0HH0@Z$1 1001f2e5 f   MapWnd.obj
 0001:0001e2ee       __unwindfunclet$?sendTR@CMapWnd@@QAEHV?$CStringT@DV?$StrTraitMFC_DLL@DV?$ChTraitsCRT@D@ATL@@@@@ATL@@0HH0@Z$2 1001f2ee f   MapWnd.obj
 0001:0001e2f7       __unwindfunclet$?sendTR@CMapWnd@@QAEHV?$CStringT@DV?$StrTraitMFC_DLL@DV?$ChTraitsCRT@D@ATL@@@@@ATL@@0HH0@Z$3 1001f2f7 f   MapWnd.obj
 0001:0001e300       __unwindfunclet$?sendTR@CMapWnd@@QAEHV?$CStringT@DV?$StrTraitMFC_DLL@DV?$ChTraitsCRT@D@ATL@@@@@ATL@@0HH0@Z$4 1001f300 f   MapWnd.obj
 0001:0001e309       __unwindfunclet$?sendTR@CMapWnd@@QAEHV?$CStringT@DV?$StrTraitMFC_DLL@DV?$ChTraitsCRT@D@ATL@@@@@ATL@@0HH0@Z$5 1001f309 f   MapWnd.obj
 0001:0001e317       __ehhandler$?sendTR@CMapWnd@@QAEHV?$CStringT@DV?$StrTraitMFC_DLL@DV?$ChTraitsCRT@D@ATL@@@@@ATL@@0HH0@Z 1001f317 f   MapWnd.obj
 0001:0001e33e       __unwindfunclet$?GetHandleByKey@CMapWnd@@QAE?AV?$CStringT@DV?$StrTraitMFC_DLL@DV?$ChTraitsCRT@D@ATL@@@@@ATL@@V23@@Z$0 1001f33e f   MapWnd.obj
 0001:0001e347       __unwindfunclet$?GetHandleByKey@CMapWnd@@QAE?AV?$CStringT@DV?$StrTraitMFC_DLL@DV?$ChTraitsCRT@D@ATL@@@@@ATL@@V23@@Z$1 1001f347 f   MapWnd.obj
 0001:0001e350       __unwindfunclet$?GetHandleByKey@CMapWnd@@QAE?AV?$CStringT@DV?$StrTraitMFC_DLL@DV?$ChTraitsCRT@D@ATL@@@@@ATL@@V23@@Z$2 1001f350 f   MapWnd.obj
 0001:0001e359       __unwindfunclet$?GetHandleByKey@CMapWnd@@QAE?AV?$CStringT@DV?$StrTraitMFC_DLL@DV?$ChTraitsCRT@D@ATL@@@@@ATL@@V23@@Z$3 1001f359 f   MapWnd.obj
 0001:0001e362       __unwindfunclet$?GetHandleByKey@CMapWnd@@QAE?AV?$CStringT@DV?$StrTraitMFC_DLL@DV?$ChTraitsCRT@D@ATL@@@@@ATL@@V23@@Z$4 1001f362 f   MapWnd.obj
 0001:0001e370       __ehhandler$?GetHandleByKey@CMapWnd@@QAE?AV?$CStringT@DV?$StrTraitMFC_DLL@DV?$ChTraitsCRT@D@ATL@@@@@ATL@@V23@@Z 1001f370 f   MapWnd.obj
 0001:0001e38d       __unwindfunclet$?GetNewAccHandleKey@CMapWnd@@QAEHXZ$0 1001f38d f   MapWnd.obj
 0001:0001e396       __unwindfunclet$?GetNewAccHandleKey@CMapWnd@@QAEHXZ$1 1001f396 f   MapWnd.obj
 0001:0001e39f       __unwindfunclet$?GetNewAccHandleKey@CMapWnd@@QAEHXZ$2 1001f39f f   MapWnd.obj
 0001:0001e3ad       __ehhandler$?GetNewAccHandleKey@CMapWnd@@QAEHXZ 1001f3ad f   MapWnd.obj
 0001:0001e3ca       __unwindfunclet$?GetNewLawHandleKey@CMapWnd@@QAEHXZ$0 1001f3ca f   MapWnd.obj
 0001:0001e3d3       __unwindfunclet$?GetNewLawHandleKey@CMapWnd@@QAEHXZ$1 1001f3d3 f   MapWnd.obj
 0001:0001e3dc       __unwindfunclet$?GetNewLawHandleKey@CMapWnd@@QAEHXZ$2 1001f3dc f   MapWnd.obj
 0001:0001e3ea       __ehhandler$?GetNewLawHandleKey@CMapWnd@@QAEHXZ 1001f3ea f   MapWnd.obj
 0001:0001e407       __unwindfunclet$?RemoveCB@CMapWnd@@AAEXV?$CStringT@DV?$StrTraitMFC_DLL@DV?$ChTraitsCRT@D@ATL@@@@@ATL@@@Z$0 1001f407 f   MapWnd.obj
 0001:0001e410       __unwindfunclet$?RemoveCB@CMapWnd@@AAEXV?$CStringT@DV?$StrTraitMFC_DLL@DV?$ChTraitsCRT@D@ATL@@@@@ATL@@@Z$1 1001f410 f   MapWnd.obj
 0001:0001e41e       __ehhandler$?RemoveCB@CMapWnd@@AAEXV?$CStringT@DV?$StrTraitMFC_DLL@DV?$ChTraitsCRT@D@ATL@@@@@ATL@@@Z 1001f41e f   MapWnd.obj
 0001:0001e43b       __unwindfunclet$?GetRightHwnd@CMapWnd@@AAEPAUHWND__@@V?$CStringT@DV?$StrTraitMFC_DLL@DV?$ChTraitsCRT@D@ATL@@@@@ATL@@@Z$0 1001f43b f   MapWnd.obj
 0001:0001e444       __unwindfunclet$?GetRightHwnd@CMapWnd@@AAEPAUHWND__@@V?$CStringT@DV?$StrTraitMFC_DLL@DV?$ChTraitsCRT@D@ATL@@@@@ATL@@@Z$1 1001f444 f   MapWnd.obj
 0001:0001e44d       __unwindfunclet$?GetRightHwnd@CMapWnd@@AAEPAUHWND__@@V?$CStringT@DV?$StrTraitMFC_DLL@DV?$ChTraitsCRT@D@ATL@@@@@ATL@@@Z$2 1001f44d f   MapWnd.obj
 0001:0001e456       __unwindfunclet$?GetRightHwnd@CMapWnd@@AAEPAUHWND__@@V?$CStringT@DV?$StrTraitMFC_DLL@DV?$ChTraitsCRT@D@ATL@@@@@ATL@@@Z$3 1001f456 f   MapWnd.obj
 0001:0001e45f       __unwindfunclet$?GetRightHwnd@CMapWnd@@AAEPAUHWND__@@V?$CStringT@DV?$StrTraitMFC_DLL@DV?$ChTraitsCRT@D@ATL@@@@@ATL@@@Z$4 1001f45f f   MapWnd.obj
 0001:0001e468       __unwindfunclet$?GetRightHwnd@CMapWnd@@AAEPAUHWND__@@V?$CStringT@DV?$StrTraitMFC_DLL@DV?$ChTraitsCRT@D@ATL@@@@@ATL@@@Z$5 1001f468 f   MapWnd.obj
 0001:0001e471       __unwindfunclet$?GetRightHwnd@CMapWnd@@AAEPAUHWND__@@V?$CStringT@DV?$StrTraitMFC_DLL@DV?$ChTraitsCRT@D@ATL@@@@@ATL@@@Z$6 1001f471 f   MapWnd.obj
 0001:0001e47f       __ehhandler$?GetRightHwnd@CMapWnd@@AAEPAUHWND__@@V?$CStringT@DV?$StrTraitMFC_DLL@DV?$ChTraitsCRT@D@ATL@@@@@ATL@@@Z 1001f47f f   MapWnd.obj
 0001:0001e49c       __unwindfunclet$?SendLawNotice@CMapWnd@@AAEXV?$CStringT@DV?$StrTraitMFC_DLL@DV?$ChTraitsCRT@D@ATL@@@@@ATL@@@Z$0 1001f49c f   MapWnd.obj
 0001:0001e4a5       __unwindfunclet$?SendLawNotice@CMapWnd@@AAEXV?$CStringT@DV?$StrTraitMFC_DLL@DV?$ChTraitsCRT@D@ATL@@@@@ATL@@@Z$2 1001f4a5 f   MapWnd.obj
 0001:0001e4ae       __unwindfunclet$?SendLawNotice@CMapWnd@@AAEXV?$CStringT@DV?$StrTraitMFC_DLL@DV?$ChTraitsCRT@D@ATL@@@@@ATL@@@Z$3 1001f4ae f   MapWnd.obj
 0001:0001e4b7       __unwindfunclet$?SendLawNotice@CMapWnd@@AAEXV?$CStringT@DV?$StrTraitMFC_DLL@DV?$ChTraitsCRT@D@ATL@@@@@ATL@@@Z$4 1001f4b7 f   MapWnd.obj
 0001:0001e4c0       __unwindfunclet$?SendLawNotice@CMapWnd@@AAEXV?$CStringT@DV?$StrTraitMFC_DLL@DV?$ChTraitsCRT@D@ATL@@@@@ATL@@@Z$5 1001f4c0 f   MapWnd.obj
 0001:0001e4c9       __unwindfunclet$?SendLawNotice@CMapWnd@@AAEXV?$CStringT@DV?$StrTraitMFC_DLL@DV?$ChTraitsCRT@D@ATL@@@@@ATL@@@Z$6 1001f4c9 f   MapWnd.obj
 0001:0001e4d2       __unwindfunclet$?SendLawNotice@CMapWnd@@AAEXV?$CStringT@DV?$StrTraitMFC_DLL@DV?$ChTraitsCRT@D@ATL@@@@@ATL@@@Z$7 1001f4d2 f   MapWnd.obj
 0001:0001e4db       __unwindfunclet$?SendLawNotice@CMapWnd@@AAEXV?$CStringT@DV?$StrTraitMFC_DLL@DV?$ChTraitsCRT@D@ATL@@@@@ATL@@@Z$8 1001f4db f   MapWnd.obj
 0001:0001e4e4       __unwindfunclet$?SendLawNotice@CMapWnd@@AAEXV?$CStringT@DV?$StrTraitMFC_DLL@DV?$ChTraitsCRT@D@ATL@@@@@ATL@@@Z$9 1001f4e4 f   MapWnd.obj
 0001:0001e4ed       __unwindfunclet$?SendLawNotice@CMapWnd@@AAEXV?$CStringT@DV?$StrTraitMFC_DLL@DV?$ChTraitsCRT@D@ATL@@@@@ATL@@@Z$10 1001f4ed f   MapWnd.obj
 0001:0001e4f6       __unwindfunclet$?SendLawNotice@CMapWnd@@AAEXV?$CStringT@DV?$StrTraitMFC_DLL@DV?$ChTraitsCRT@D@ATL@@@@@ATL@@@Z$11 1001f4f6 f   MapWnd.obj
 0001:0001e4ff       __unwindfunclet$?SendLawNotice@CMapWnd@@AAEXV?$CStringT@DV?$StrTraitMFC_DLL@DV?$ChTraitsCRT@D@ATL@@@@@ATL@@@Z$12 1001f4ff f   MapWnd.obj
 0001:0001e508       __unwindfunclet$?SendLawNotice@CMapWnd@@AAEXV?$CStringT@DV?$StrTraitMFC_DLL@DV?$ChTraitsCRT@D@ATL@@@@@ATL@@@Z$13 1001f508 f   MapWnd.obj
 0001:0001e511       __unwindfunclet$?SendLawNotice@CMapWnd@@AAEXV?$CStringT@DV?$StrTraitMFC_DLL@DV?$ChTraitsCRT@D@ATL@@@@@ATL@@@Z$14 1001f511 f   MapWnd.obj
 0001:0001e51a       __unwindfunclet$?SendLawNotice@CMapWnd@@AAEXV?$CStringT@DV?$StrTraitMFC_DLL@DV?$ChTraitsCRT@D@ATL@@@@@ATL@@@Z$15 1001f51a f   MapWnd.obj
 0001:0001e523       __unwindfunclet$?SendLawNotice@CMapWnd@@AAEXV?$CStringT@DV?$StrTraitMFC_DLL@DV?$ChTraitsCRT@D@ATL@@@@@ATL@@@Z$16 1001f523 f   MapWnd.obj
 0001:0001e52c       __unwindfunclet$?SendLawNotice@CMapWnd@@AAEXV?$CStringT@DV?$StrTraitMFC_DLL@DV?$ChTraitsCRT@D@ATL@@@@@ATL@@@Z$17 1001f52c f   MapWnd.obj
 0001:0001e535       __unwindfunclet$?SendLawNotice@CMapWnd@@AAEXV?$CStringT@DV?$StrTraitMFC_DLL@DV?$ChTraitsCRT@D@ATL@@@@@ATL@@@Z$18 1001f535 f   MapWnd.obj
 0001:0001e53e       __unwindfunclet$?SendLawNotice@CMapWnd@@AAEXV?$CStringT@DV?$StrTraitMFC_DLL@DV?$ChTraitsCRT@D@ATL@@@@@ATL@@@Z$19 1001f53e f   MapWnd.obj
 0001:0001e547       __unwindfunclet$?SendLawNotice@CMapWnd@@AAEXV?$CStringT@DV?$StrTraitMFC_DLL@DV?$ChTraitsCRT@D@ATL@@@@@ATL@@@Z$20 1001f547 f   MapWnd.obj
 0001:0001e550       __unwindfunclet$?SendLawNotice@CMapWnd@@AAEXV?$CStringT@DV?$StrTraitMFC_DLL@DV?$ChTraitsCRT@D@ATL@@@@@ATL@@@Z$21 1001f550 f   MapWnd.obj
 0001:0001e559       __unwindfunclet$?SendLawNotice@CMapWnd@@AAEXV?$CStringT@DV?$StrTraitMFC_DLL@DV?$ChTraitsCRT@D@ATL@@@@@ATL@@@Z$22 1001f559 f   MapWnd.obj
 0001:0001e562       __unwindfunclet$?SendLawNotice@CMapWnd@@AAEXV?$CStringT@DV?$StrTraitMFC_DLL@DV?$ChTraitsCRT@D@ATL@@@@@ATL@@@Z$23 1001f562 f   MapWnd.obj
 0001:0001e56b       __unwindfunclet$?SendLawNotice@CMapWnd@@AAEXV?$CStringT@DV?$StrTraitMFC_DLL@DV?$ChTraitsCRT@D@ATL@@@@@ATL@@@Z$24 1001f56b f   MapWnd.obj
 0001:0001e574       __unwindfunclet$?SendLawNotice@CMapWnd@@AAEXV?$CStringT@DV?$StrTraitMFC_DLL@DV?$ChTraitsCRT@D@ATL@@@@@ATL@@@Z$26 1001f574 f   MapWnd.obj
 0001:0001e580       __unwindfunclet$?SendLawNotice@CMapWnd@@AAEXV?$CStringT@DV?$StrTraitMFC_DLL@DV?$ChTraitsCRT@D@ATL@@@@@ATL@@@Z$28 1001f580 f   MapWnd.obj
 0001:0001e58c       __unwindfunclet$?SendLawNotice@CMapWnd@@AAEXV?$CStringT@DV?$StrTraitMFC_DLL@DV?$ChTraitsCRT@D@ATL@@@@@ATL@@@Z$30 1001f58c f   MapWnd.obj
 0001:0001e598       __unwindfunclet$?SendLawNotice@CMapWnd@@AAEXV?$CStringT@DV?$StrTraitMFC_DLL@DV?$ChTraitsCRT@D@ATL@@@@@ATL@@@Z$33 1001f598 f   MapWnd.obj
 0001:0001e5a3       __unwindfunclet$?SendLawNotice@CMapWnd@@AAEXV?$CStringT@DV?$StrTraitMFC_DLL@DV?$ChTraitsCRT@D@ATL@@@@@ATL@@@Z$34 1001f5a3 f   MapWnd.obj
 0001:0001e5ac       __unwindfunclet$?SendLawNotice@CMapWnd@@AAEXV?$CStringT@DV?$StrTraitMFC_DLL@DV?$ChTraitsCRT@D@ATL@@@@@ATL@@@Z$35 1001f5ac f   MapWnd.obj
 0001:0001e5b5       __unwindfunclet$?SendLawNotice@CMapWnd@@AAEXV?$CStringT@DV?$StrTraitMFC_DLL@DV?$ChTraitsCRT@D@ATL@@@@@ATL@@@Z$36 1001f5b5 f   MapWnd.obj
 0001:0001e5be       __unwindfunclet$?SendLawNotice@CMapWnd@@AAEXV?$CStringT@DV?$StrTraitMFC_DLL@DV?$ChTraitsCRT@D@ATL@@@@@ATL@@@Z$38 1001f5be f   MapWnd.obj
 0001:0001e5ca       __unwindfunclet$?SendLawNotice@CMapWnd@@AAEXV?$CStringT@DV?$StrTraitMFC_DLL@DV?$ChTraitsCRT@D@ATL@@@@@ATL@@@Z$40 1001f5ca f   MapWnd.obj
 0001:0001e5d6       __unwindfunclet$?SendLawNotice@CMapWnd@@AAEXV?$CStringT@DV?$StrTraitMFC_DLL@DV?$ChTraitsCRT@D@ATL@@@@@ATL@@@Z$41 1001f5d6 f   MapWnd.obj
 0001:0001e5df       __unwindfunclet$?SendLawNotice@CMapWnd@@AAEXV?$CStringT@DV?$StrTraitMFC_DLL@DV?$ChTraitsCRT@D@ATL@@@@@ATL@@@Z$42 1001f5df f   MapWnd.obj
 0001:0001e5eb       __unwindfunclet$?SendLawNotice@CMapWnd@@AAEXV?$CStringT@DV?$StrTraitMFC_DLL@DV?$ChTraitsCRT@D@ATL@@@@@ATL@@@Z$43 1001f5eb f   MapWnd.obj
 0001:0001e5f7       __unwindfunclet$?SendLawNotice@CMapWnd@@AAEXV?$CStringT@DV?$StrTraitMFC_DLL@DV?$ChTraitsCRT@D@ATL@@@@@ATL@@@Z$44 1001f5f7 f   MapWnd.obj
 0001:0001e608       __ehhandler$?SendLawNotice@CMapWnd@@AAEXV?$CStringT@DV?$StrTraitMFC_DLL@DV?$ChTraitsCRT@D@ATL@@@@@ATL@@@Z 1001f608 f   MapWnd.obj
 0001:0001e628       __unwindfunclet$?GetEncPassword@CMapWnd@@AAE?AV?$CStringT@DV?$StrTraitMFC_DLL@DV?$ChTraitsCRT@D@ATL@@@@@ATL@@V23@@Z$0 1001f628 f   MapWnd.obj
 0001:0001e631       __unwindfunclet$?GetEncPassword@CMapWnd@@AAE?AV?$CStringT@DV?$StrTraitMFC_DLL@DV?$ChTraitsCRT@D@ATL@@@@@ATL@@V23@@Z$1 1001f631 f   MapWnd.obj
 0001:0001e63a       __unwindfunclet$?GetEncPassword@CMapWnd@@AAE?AV?$CStringT@DV?$StrTraitMFC_DLL@DV?$ChTraitsCRT@D@ATL@@@@@ATL@@V23@@Z$2 1001f63a f   MapWnd.obj
 0001:0001e643       __unwindfunclet$?GetEncPassword@CMapWnd@@AAE?AV?$CStringT@DV?$StrTraitMFC_DLL@DV?$ChTraitsCRT@D@ATL@@@@@ATL@@V23@@Z$3 1001f643 f   MapWnd.obj
 0001:0001e651       __ehhandler$?GetEncPassword@CMapWnd@@AAE?AV?$CStringT@DV?$StrTraitMFC_DLL@DV?$ChTraitsCRT@D@ATL@@@@@ATL@@V23@@Z 1001f651 f   MapWnd.obj
 0001:0001e66e       __unwindfunclet$?parseX@@YA?AV?$CStringT@DV?$StrTraitMFC_DLL@DV?$ChTraitsCRT@D@ATL@@@@@ATL@@AAV12@V12@@Z$0 1001f66e f   MapWnd.obj
 0001:0001e677       __unwindfunclet$?parseX@@YA?AV?$CStringT@DV?$StrTraitMFC_DLL@DV?$ChTraitsCRT@D@ATL@@@@@ATL@@AAV12@V12@@Z$1 1001f677 f   MapWnd.obj
 0001:0001e680       __unwindfunclet$?parseX@@YA?AV?$CStringT@DV?$StrTraitMFC_DLL@DV?$ChTraitsCRT@D@ATL@@@@@ATL@@AAV12@V12@@Z$3 1001f680 f   MapWnd.obj
 0001:0001e689       __unwindfunclet$?parseX@@YA?AV?$CStringT@DV?$StrTraitMFC_DLL@DV?$ChTraitsCRT@D@ATL@@@@@ATL@@AAV12@V12@@Z$4 1001f689 f   MapWnd.obj
 0001:0001e697       __ehhandler$?parseX@@YA?AV?$CStringT@DV?$StrTraitMFC_DLL@DV?$ChTraitsCRT@D@ATL@@@@@ATL@@AAV12@V12@@Z 1001f697 f   MapWnd.obj
 0001:0001e6b4       __unwindfunclet$?GetPriceUnit@@YANNV?$CStringT@DV?$StrTraitMFC_DLL@DV?$ChTraitsCRT@D@ATL@@@@@ATL@@_N@Z$0 1001f6b4 f   MapWnd.obj
 0001:0001e6bd       __unwindfunclet$?GetPriceUnit@@YANNV?$CStringT@DV?$StrTraitMFC_DLL@DV?$ChTraitsCRT@D@ATL@@@@@ATL@@_N@Z$1 1001f6bd f   MapWnd.obj
 0001:0001e6cb       __ehhandler$?GetPriceUnit@@YANNV?$CStringT@DV?$StrTraitMFC_DLL@DV?$ChTraitsCRT@D@ATL@@@@@ATL@@_N@Z 1001f6cb f   MapWnd.obj
 0001:0001e6e8       __unwindfunclet$?SetComma@@YA?AV?$CStringT@DV?$StrTraitMFC_DLL@DV?$ChTraitsCRT@D@ATL@@@@@ATL@@V12@@Z$0 1001f6e8 f   MapWnd.obj
 0001:0001e6f1       __unwindfunclet$?SetComma@@YA?AV?$CStringT@DV?$StrTraitMFC_DLL@DV?$ChTraitsCRT@D@ATL@@@@@ATL@@V12@@Z$1 1001f6f1 f   MapWnd.obj
 0001:0001e6fa       __unwindfunclet$?SetComma@@YA?AV?$CStringT@DV?$StrTraitMFC_DLL@DV?$ChTraitsCRT@D@ATL@@@@@ATL@@V12@@Z$2 1001f6fa f   MapWnd.obj
 0001:0001e703       __unwindfunclet$?SetComma@@YA?AV?$CStringT@DV?$StrTraitMFC_DLL@DV?$ChTraitsCRT@D@ATL@@@@@ATL@@V12@@Z$3 1001f703 f   MapWnd.obj
 0001:0001e70c       __unwindfunclet$?SetComma@@YA?AV?$CStringT@DV?$StrTraitMFC_DLL@DV?$ChTraitsCRT@D@ATL@@@@@ATL@@V12@@Z$4 1001f70c f   MapWnd.obj
 0001:0001e715       __unwindfunclet$?SetComma@@YA?AV?$CStringT@DV?$StrTraitMFC_DLL@DV?$ChTraitsCRT@D@ATL@@@@@ATL@@V12@@Z$5 1001f715 f   MapWnd.obj
 0001:0001e71e       __unwindfunclet$?SetComma@@YA?AV?$CStringT@DV?$StrTraitMFC_DLL@DV?$ChTraitsCRT@D@ATL@@@@@ATL@@V12@@Z$6 1001f71e f   MapWnd.obj
 0001:0001e727       __unwindfunclet$?SetComma@@YA?AV?$CStringT@DV?$StrTraitMFC_DLL@DV?$ChTraitsCRT@D@ATL@@@@@ATL@@V12@@Z$7 1001f727 f   MapWnd.obj
 0001:0001e735       __ehhandler$?SetComma@@YA?AV?$CStringT@DV?$StrTraitMFC_DLL@DV?$ChTraitsCRT@D@ATL@@@@@ATL@@V12@@Z 1001f735 f   MapWnd.obj
 0001:0001e752       __unwindfunclet$?openViewA@@YAHPAVCWnd@@HV?$CStringT@DV?$StrTraitMFC_DLL@DV?$ChTraitsCRT@D@ATL@@@@@ATL@@@Z$0 1001f752 f   MapWnd.obj
 0001:0001e760       __ehhandler$?openViewA@@YAHPAVCWnd@@HV?$CStringT@DV?$StrTraitMFC_DLL@DV?$ChTraitsCRT@D@ATL@@@@@ATL@@@Z 1001f760 f   MapWnd.obj
 0001:0001e77d       __unwindfunclet$?SendTRA@@YAHPAVCWnd@@V?$CStringT@DV?$StrTraitMFC_DLL@DV?$ChTraitsCRT@D@ATL@@@@@ATL@@E1H1@Z$0 1001f77d f   MapWnd.obj
 0001:0001e786       __unwindfunclet$?SendTRA@@YAHPAVCWnd@@V?$CStringT@DV?$StrTraitMFC_DLL@DV?$ChTraitsCRT@D@ATL@@@@@ATL@@E1H1@Z$1 1001f786 f   MapWnd.obj
 0001:0001e78f       __unwindfunclet$?SendTRA@@YAHPAVCWnd@@V?$CStringT@DV?$StrTraitMFC_DLL@DV?$ChTraitsCRT@D@ATL@@@@@ATL@@E1H1@Z$2 1001f78f f   MapWnd.obj
 0001:0001e798       __unwindfunclet$?SendTRA@@YAHPAVCWnd@@V?$CStringT@DV?$StrTraitMFC_DLL@DV?$ChTraitsCRT@D@ATL@@@@@ATL@@E1H1@Z$3 1001f798 f   MapWnd.obj
 0001:0001e7a1       __unwindfunclet$?SendTRA@@YAHPAVCWnd@@V?$CStringT@DV?$StrTraitMFC_DLL@DV?$ChTraitsCRT@D@ATL@@@@@ATL@@E1H1@Z$4 1001f7a1 f   MapWnd.obj
 0001:0001e7af       __ehhandler$?SendTRA@@YAHPAVCWnd@@V?$CStringT@DV?$StrTraitMFC_DLL@DV?$ChTraitsCRT@D@ATL@@@@@ATL@@E1H1@Z 1001f7af f   MapWnd.obj
 0001:0001e7d6       __unwindfunclet$?getAxFontA@@YAPAVCFont@@PAVCWnd@@V?$CStringT@DV?$StrTraitMFC_DLL@DV?$ChTraitsCRT@D@ATL@@@@@ATL@@HH@Z$0 1001f7d6 f   MapWnd.obj
 0001:0001e7e4       __ehhandler$?getAxFontA@@YAPAVCFont@@PAVCWnd@@V?$CStringT@DV?$StrTraitMFC_DLL@DV?$ChTraitsCRT@D@ATL@@@@@ATL@@HH@Z 1001f7e4 f   MapWnd.obj
 0001:0001e801       __unwindfunclet$?getAxBitmapA@@YAPAVCBitmap@@PAVCWnd@@V?$CStringT@DV?$StrTraitMFC_DLL@DV?$ChTraitsCRT@D@ATL@@@@@ATL@@@Z$0 1001f801 f   MapWnd.obj
 0001:0001e80f       __ehhandler$?getAxBitmapA@@YAPAVCBitmap@@PAVCWnd@@V?$CStringT@DV?$StrTraitMFC_DLL@DV?$ChTraitsCRT@D@ATL@@@@@ATL@@@Z 1001f80f f   MapWnd.obj
 0001:0001e82c       __unwindfunclet$?VariantA@@YA?AV?$CStringT@DV?$StrTraitMFC_DLL@DV?$ChTraitsCRT@D@ATL@@@@@ATL@@PAVCWnd@@HV12@@Z$0 1001f82c f   MapWnd.obj
 0001:0001e835       __unwindfunclet$?VariantA@@YA?AV?$CStringT@DV?$StrTraitMFC_DLL@DV?$ChTraitsCRT@D@ATL@@@@@ATL@@PAVCWnd@@HV12@@Z$1 1001f835 f   MapWnd.obj
 0001:0001e843       __ehhandler$?VariantA@@YA?AV?$CStringT@DV?$StrTraitMFC_DLL@DV?$ChTraitsCRT@D@ATL@@@@@ATL@@PAVCWnd@@HV12@@Z 1001f843 f   MapWnd.obj
 0001:0001e860       __unwindfunclet$?CreateMapObjectA@@YAPAVCWnd@@PAV1@0V?$CStringT@DV?$StrTraitMFC_DLL@DV?$ChTraitsCRT@D@ATL@@@@@ATL@@AAHVCPoint@@@Z$0 1001f860 f   MapWnd.obj
 0001:0001e869       __unwindfunclet$?CreateMapObjectA@@YAPAVCWnd@@PAV1@0V?$CStringT@DV?$StrTraitMFC_DLL@DV?$ChTraitsCRT@D@ATL@@@@@ATL@@AAHVCPoint@@@Z$1 1001f869 f   MapWnd.obj
 0001:0001e871       __unwindfunclet$?CreateMapObjectA@@YAPAVCWnd@@PAV1@0V?$CStringT@DV?$StrTraitMFC_DLL@DV?$ChTraitsCRT@D@ATL@@@@@ATL@@AAHVCPoint@@@Z$2 1001f871 f   MapWnd.obj
 0001:0001e87a       __unwindfunclet$?CreateMapObjectA@@YAPAVCWnd@@PAV1@0V?$CStringT@DV?$StrTraitMFC_DLL@DV?$ChTraitsCRT@D@ATL@@@@@ATL@@AAHVCPoint@@@Z$3 1001f87a f   MapWnd.obj
 0001:0001e888       __ehhandler$?CreateMapObjectA@@YAPAVCWnd@@PAV1@0V?$CStringT@DV?$StrTraitMFC_DLL@DV?$ChTraitsCRT@D@ATL@@@@@ATL@@AAHVCPoint@@@Z 1001f888 f   MapWnd.obj
 0001:0001e8b0       __ehhandler$??$_Deallocate@$07$0A@@std@@YAXPAXI@Z 1001f8b0 f   MapWnd.obj
 0001:0001e8b0       __ehhandler$??$_Destroy_range@V?$allocator@V?$unique_ptr@VCAccn@@U?$default_delete@VCAccn@@@std@@@std@@@std@@@std@@YAXPAV?$unique_ptr@VCAccn@@U?$default_delete@VCAccn@@@std@@@0@QAV10@AAV?$allocator@V?$unique_ptr@VCAccn@@U?$default_delete@VCAccn@@@std@@@std@@@0@@Z 1001f8b0 f   MapWnd.obj
 0001:0001e8d0       __ehhandler$??$_Emplace_reallocate@V?$unique_ptr@VCAccn@@U?$default_delete@VCAccn@@@std@@@std@@@?$vector@V?$unique_ptr@VCAccn@@U?$default_delete@VCAccn@@@std@@@std@@V?$allocator@V?$unique_ptr@VCAccn@@U?$default_delete@VCAccn@@@std@@@std@@@2@@std@@QAEPAV?$unique_ptr@VCAccn@@U?$default_delete@VCAccn@@@std@@@1@QAV21@$$QAV21@@Z 1001f8d0 f   MapWnd.obj
 0001:0001e8f0       __unwindfunclet$??$_Uninitialized_move@PAV?$unique_ptr@VCAccn@@U?$default_delete@VCAccn@@@std@@@std@@V?$allocator@V?$unique_ptr@VCAccn@@U?$default_delete@VCAccn@@@std@@@std@@@2@@std@@YAPAV?$unique_ptr@VCAccn@@U?$default_delete@VCAccn@@@std@@@0@QAV10@0PAV10@AAV?$allocator@V?$unique_ptr@VCAccn@@U?$default_delete@VCAccn@@@std@@@std@@@0@@Z$0 1001f8f0 f   MapWnd.obj
 0001:0001e8fd       __ehhandler$??$_Uninitialized_move@PAV?$unique_ptr@VCAccn@@U?$default_delete@VCAccn@@@std@@@std@@V?$allocator@V?$unique_ptr@VCAccn@@U?$default_delete@VCAccn@@@std@@@std@@@2@@std@@YAPAV?$unique_ptr@VCAccn@@U?$default_delete@VCAccn@@@std@@@0@QAV10@0PAV10@AAV?$allocator@V?$unique_ptr@VCAccn@@U?$default_delete@VCAccn@@@std@@@std@@@0@@Z 1001f8fd f   MapWnd.obj
 0001:0001e920       __unwindfunclet$??$make_unique@VCAccn@@$$V$0A@@std@@YA?AV?$unique_ptr@VCAccn@@U?$default_delete@VCAccn@@@std@@@0@XZ$0 1001f920 f   MapWnd.obj
 0001:0001e934       __ehhandler$??$make_unique@VCAccn@@$$V$0A@@std@@YA?AV?$unique_ptr@VCAccn@@U?$default_delete@VCAccn@@@std@@@0@XZ 1001f934 f   MapWnd.obj
 0001:0001e960       __unwindfunclet$??$make_unique@VCShMemory@@$$V$0A@@std@@YA?AV?$unique_ptr@VCShMemory@@U?$default_delete@VCShMemory@@@std@@@0@XZ$0 1001f960 f   MapWnd.obj
 0001:0001e974       __ehhandler$??$make_unique@VCShMemory@@$$V$0A@@std@@YA?AV?$unique_ptr@VCShMemory@@U?$default_delete@VCShMemory@@@std@@@0@XZ 1001f974 f   MapWnd.obj
 0001:0001e9a0       __unwindfunclet$??0CAccn@@QAE@XZ$0 1001f9a0 f   MapWnd.obj
 0001:0001e9ac       __unwindfunclet$??0CAccn@@QAE@XZ$1 1001f9ac f   MapWnd.obj
 0001:0001e9b8       __unwindfunclet$??0CAccn@@QAE@XZ$2 1001f9b8 f   MapWnd.obj
 0001:0001e9c4       __unwindfunclet$??0CAccn@@QAE@XZ$3 1001f9c4 f   MapWnd.obj
 0001:0001e9d4       __ehhandler$??0CAccn@@QAE@XZ 1001f9d4 f   MapWnd.obj
 0001:0001ea00       __unwindfunclet$??0CCriticalSection@@QAE@XZ$0 1001fa00 f   MapWnd.obj
 0001:0001ea0d       __ehhandler$??0CCriticalSection@@QAE@XZ 1001fa0d f   MapWnd.obj
 0001:0001ea30       __ehhandler$??8ATL@@YA_NABV?$CStringT@DV?$StrTraitMFC_DLL@DV?$ChTraitsCRT@D@ATL@@@@@0@0@Z 1001fa30 f   MapWnd.obj
 0001:0001ea30       __ehhandler$??8ATL@@YA_NABV?$CStringT@DV?$StrTraitMFC_DLL@DV?$ChTraitsCRT@D@ATL@@@@@0@PBD@Z 1001fa30 f   MapWnd.obj
 0001:0001ea30       __ehhandler$??9ATL@@YA_NABV?$CStringT@DV?$StrTraitMFC_DLL@DV?$ChTraitsCRT@D@ATL@@@@@0@PBD@Z 1001fa30 f   MapWnd.obj
 0001:0001ea30       __ehhandler$??1?$CMap@HHV?$CStringT@DV?$StrTraitMFC_DLL@DV?$ChTraitsCRT@D@ATL@@@@@ATL@@V12@@@UAE@XZ 1001fa30 f   Remain.obj
 0001:0001ea30       __ehhandler$??NATL@@YA_NABV?$CStringT@DV?$StrTraitMFC_DLL@DV?$ChTraitsCRT@D@ATL@@@@@0@PBD@Z 1001fa30 f   RemainFuture.obj
 0001:0001ea30       __ehhandler$??OATL@@YA_NABV?$CStringT@DV?$StrTraitMFC_DLL@DV?$ChTraitsCRT@D@ATL@@@@@0@PBD@Z 1001fa30 f   RemainFuture.obj
 0001:0001ea30       __ehhandler$??PATL@@YA_NABV?$CStringT@DV?$StrTraitMFC_DLL@DV?$ChTraitsCRT@D@ATL@@@@@0@PBD@Z 1001fa30 f   RemainFuture.obj
 0001:0001ea50       __unwindfunclet$??HATL@@YA?AV?$CStringT@DV?$StrTraitMFC_DLL@DV?$ChTraitsCRT@D@ATL@@@@@0@ABV10@0@Z$0 1001fa50 f   MapWnd.obj
 0001:0001ea5e       __ehhandler$??HATL@@YA?AV?$CStringT@DV?$StrTraitMFC_DLL@DV?$ChTraitsCRT@D@ATL@@@@@0@ABV10@0@Z 1001fa5e f   MapWnd.obj
 0001:0001ea80       __unwindfunclet$??HATL@@YA?AV?$CStringT@DV?$StrTraitMFC_DLL@DV?$ChTraitsCRT@D@ATL@@@@@0@ABV10@PBD@Z$0 1001fa80 f   MapWnd.obj
 0001:0001ea80       __unwindfunclet$??HATL@@YA?AV?$CStringT@DV?$StrTraitMFC_DLL@DV?$ChTraitsCRT@D@ATL@@@@@0@PBDABV10@@Z$0 1001fa80 f   MapWnd.obj
 0001:0001ea8e       __ehhandler$??HATL@@YA?AV?$CStringT@DV?$StrTraitMFC_DLL@DV?$ChTraitsCRT@D@ATL@@@@@0@ABV10@PBD@Z 1001fa8e f   MapWnd.obj
 0001:0001ea8e       __ehhandler$??HATL@@YA?AV?$CStringT@DV?$StrTraitMFC_DLL@DV?$ChTraitsCRT@D@ATL@@@@@0@PBDABV10@@Z 1001fa8e f   MapWnd.obj
 0001:0001eab0       __unwindfunclet$??HATL@@YA?AV?$CStringT@DV?$StrTraitMFC_DLL@DV?$ChTraitsCRT@D@ATL@@@@@0@DABV10@@Z$0 1001fab0 f   MapWnd.obj
 0001:0001eabe       __ehhandler$??HATL@@YA?AV?$CStringT@DV?$StrTraitMFC_DLL@DV?$ChTraitsCRT@D@ATL@@@@@0@DABV10@@Z 1001fabe f   MapWnd.obj
 0001:0001eae0       __ehhandler$?GetDay@CTime@ATL@@QBEHXZ 1001fae0 f   MapWnd.obj
 0001:0001eae0       __ehhandler$?GetHour@CTime@ATL@@QBEHXZ 1001fae0 f   MapWnd.obj
 0001:0001eae0       __ehhandler$?GetMinute@CTime@ATL@@QBEHXZ 1001fae0 f   MapWnd.obj
 0001:0001eae0       __ehhandler$?GetMonth@CTime@ATL@@QBEHXZ 1001fae0 f   MapWnd.obj
 0001:0001eae0       __ehhandler$?GetSecond@CTime@ATL@@QBEHXZ 1001fae0 f   MapWnd.obj
 0001:0001eb10       __ehhandler$?_Tidy@?$vector@V?$unique_ptr@VCAccn@@U?$default_delete@VCAccn@@@std@@@std@@V?$allocator@V?$unique_ptr@VCAccn@@U?$default_delete@VCAccn@@@std@@@std@@@2@@std@@AAEXXZ 1001fb10 f   MapWnd.obj
 0001:0001eb40       __unwindfunclet$??0CRemain@@QAE@XZ$0 1001fb40 f   Remain.obj
 0001:0001eb4b       __unwindfunclet$??0CRemain@@QAE@XZ$1 1001fb4b f   Remain.obj
 0001:0001eb5d       __unwindfunclet$??0CRemain@@QAE@XZ$2 1001fb5d f   Remain.obj
 0001:0001eb6f       __unwindfunclet$??0CRemain@@QAE@XZ$3 1001fb6f f   Remain.obj
 0001:0001eb81       __unwindfunclet$??0CRemain@@QAE@XZ$4 1001fb81 f   Remain.obj
 0001:0001eb93       __unwindfunclet$??0CRemain@@QAE@XZ$5 1001fb93 f   Remain.obj
 0001:0001eba5       __unwindfunclet$??0CRemain@@QAE@XZ$6 1001fba5 f   Remain.obj
 0001:0001ebb7       __unwindfunclet$??0CRemain@@QAE@XZ$7 1001fbb7 f   Remain.obj
 0001:0001ebc9       __unwindfunclet$??0CRemain@@QAE@XZ$8 1001fbc9 f   Remain.obj
 0001:0001ebdb       __unwindfunclet$??0CRemain@@QAE@XZ$9 1001fbdb f   Remain.obj
 0001:0001ebed       __unwindfunclet$??0CRemain@@QAE@XZ$10 1001fbed f   Remain.obj
 0001:0001ebff       __unwindfunclet$??0CRemain@@QAE@XZ$11 1001fbff f   Remain.obj
 0001:0001ec11       __unwindfunclet$??0CRemain@@QAE@XZ$12 1001fc11 f   Remain.obj
 0001:0001ec23       __unwindfunclet$??0CRemain@@QAE@XZ$13 1001fc23 f   Remain.obj
 0001:0001ec35       __unwindfunclet$??0CRemain@@QAE@XZ$14 1001fc35 f   Remain.obj
 0001:0001ec47       __unwindfunclet$??0CRemain@@QAE@XZ$15 1001fc47 f   Remain.obj
 0001:0001ec59       __unwindfunclet$??0CRemain@@QAE@XZ$16 1001fc59 f   Remain.obj
 0001:0001ec6b       __unwindfunclet$??0CRemain@@QAE@XZ$17 1001fc6b f   Remain.obj
 0001:0001ec7d       __unwindfunclet$??0CRemain@@QAE@XZ$18 1001fc7d f   Remain.obj
 0001:0001ec8f       __unwindfunclet$??0CRemain@@QAE@XZ$19 1001fc8f f   Remain.obj
 0001:0001eca1       __unwindfunclet$??0CRemain@@QAE@XZ$20 1001fca1 f   Remain.obj
 0001:0001ecb2       __unwindfunclet$??0CRemain@@QAE@XZ$21 1001fcb2 f   Remain.obj
 0001:0001ecc3       __unwindfunclet$??0CRemain@@QAE@XZ$22 1001fcc3 f   Remain.obj
 0001:0001eccf       __unwindfunclet$??0CRemain@@QAE@XZ$23 1001fccf f   Remain.obj
 0001:0001ecdb       __unwindfunclet$??0CRemain@@QAE@XZ$25 1001fcdb f   Remain.obj
 0001:0001ecec       __ehhandler$??0CRemain@@QAE@XZ 1001fcec f   Remain.obj
 0001:0001ed16       __unwindfunclet$??0CRemain@@QAE@PAVCWnd@@@Z$0 1001fd16 f   Remain.obj
 0001:0001ed1e       __unwindfunclet$??0CRemain@@QAE@PAVCWnd@@@Z$1 1001fd1e f   Remain.obj
 0001:0001ed2d       __unwindfunclet$??0CRemain@@QAE@PAVCWnd@@@Z$2 1001fd2d f   Remain.obj
 0001:0001ed3c       __unwindfunclet$??0CRemain@@QAE@PAVCWnd@@@Z$3 1001fd3c f   Remain.obj
 0001:0001ed4b       __unwindfunclet$??0CRemain@@QAE@PAVCWnd@@@Z$4 1001fd4b f   Remain.obj
 0001:0001ed5a       __unwindfunclet$??0CRemain@@QAE@PAVCWnd@@@Z$5 1001fd5a f   Remain.obj
 0001:0001ed69       __unwindfunclet$??0CRemain@@QAE@PAVCWnd@@@Z$6 1001fd69 f   Remain.obj
 0001:0001ed78       __unwindfunclet$??0CRemain@@QAE@PAVCWnd@@@Z$7 1001fd78 f   Remain.obj
 0001:0001ed87       __unwindfunclet$??0CRemain@@QAE@PAVCWnd@@@Z$8 1001fd87 f   Remain.obj
 0001:0001ed96       __unwindfunclet$??0CRemain@@QAE@PAVCWnd@@@Z$9 1001fd96 f   Remain.obj
 0001:0001eda5       __unwindfunclet$??0CRemain@@QAE@PAVCWnd@@@Z$10 1001fda5 f   Remain.obj
 0001:0001edb4       __unwindfunclet$??0CRemain@@QAE@PAVCWnd@@@Z$11 1001fdb4 f   Remain.obj
 0001:0001edc3       __unwindfunclet$??0CRemain@@QAE@PAVCWnd@@@Z$12 1001fdc3 f   Remain.obj
 0001:0001edd2       __unwindfunclet$??0CRemain@@QAE@PAVCWnd@@@Z$13 1001fdd2 f   Remain.obj
 0001:0001ede1       __unwindfunclet$??0CRemain@@QAE@PAVCWnd@@@Z$14 1001fde1 f   Remain.obj
 0001:0001edf0       __unwindfunclet$??0CRemain@@QAE@PAVCWnd@@@Z$15 1001fdf0 f   Remain.obj
 0001:0001edff       __unwindfunclet$??0CRemain@@QAE@PAVCWnd@@@Z$16 1001fdff f   Remain.obj
 0001:0001ee0e       __unwindfunclet$??0CRemain@@QAE@PAVCWnd@@@Z$17 1001fe0e f   Remain.obj
 0001:0001ee1d       __unwindfunclet$??0CRemain@@QAE@PAVCWnd@@@Z$18 1001fe1d f   Remain.obj
 0001:0001ee2c       __unwindfunclet$??0CRemain@@QAE@PAVCWnd@@@Z$19 1001fe2c f   Remain.obj
 0001:0001ee3b       __unwindfunclet$??0CRemain@@QAE@PAVCWnd@@@Z$20 1001fe3b f   Remain.obj
 0001:0001ee49       __unwindfunclet$??0CRemain@@QAE@PAVCWnd@@@Z$21 1001fe49 f   Remain.obj
 0001:0001ee5c       __ehhandler$??0CRemain@@QAE@PAVCWnd@@@Z 1001fe5c f   Remain.obj
 0001:0001ee7c       __ehhandler$??1CRemain@@UAE@XZ 1001fe7c f   Remain.obj
 0001:0001ee99       __unwindfunclet$?TotalData@CRemain@@QAE?AV?$CStringT@DV?$StrTraitMFC_DLL@DV?$ChTraitsCRT@D@ATL@@@@@ATL@@XZ$0 1001fe99 f   Remain.obj
 0001:0001eea2       __unwindfunclet$?TotalData@CRemain@@QAE?AV?$CStringT@DV?$StrTraitMFC_DLL@DV?$ChTraitsCRT@D@ATL@@@@@ATL@@XZ$1 1001fea2 f   Remain.obj
 0001:0001eeab       __unwindfunclet$?TotalData@CRemain@@QAE?AV?$CStringT@DV?$StrTraitMFC_DLL@DV?$ChTraitsCRT@D@ATL@@@@@ATL@@XZ$3 1001feab f   Remain.obj
 0001:0001eeb7       __unwindfunclet$?TotalData@CRemain@@QAE?AV?$CStringT@DV?$StrTraitMFC_DLL@DV?$ChTraitsCRT@D@ATL@@@@@ATL@@XZ$5 1001feb7 f   Remain.obj
 0001:0001eec3       __unwindfunclet$?TotalData@CRemain@@QAE?AV?$CStringT@DV?$StrTraitMFC_DLL@DV?$ChTraitsCRT@D@ATL@@@@@ATL@@XZ$6 1001fec3 f   Remain.obj
 0001:0001eecf       __unwindfunclet$?TotalData@CRemain@@QAE?AV?$CStringT@DV?$StrTraitMFC_DLL@DV?$ChTraitsCRT@D@ATL@@@@@ATL@@XZ$7 1001fecf f   Remain.obj
 0001:0001eedb       __unwindfunclet$?TotalData@CRemain@@QAE?AV?$CStringT@DV?$StrTraitMFC_DLL@DV?$ChTraitsCRT@D@ATL@@@@@ATL@@XZ$8 1001fedb f   Remain.obj
 0001:0001eee7       __unwindfunclet$?TotalData@CRemain@@QAE?AV?$CStringT@DV?$StrTraitMFC_DLL@DV?$ChTraitsCRT@D@ATL@@@@@ATL@@XZ$9 1001fee7 f   Remain.obj
 0001:0001eef3       __unwindfunclet$?TotalData@CRemain@@QAE?AV?$CStringT@DV?$StrTraitMFC_DLL@DV?$ChTraitsCRT@D@ATL@@@@@ATL@@XZ$10 1001fef3 f   Remain.obj
 0001:0001eeff       __unwindfunclet$?TotalData@CRemain@@QAE?AV?$CStringT@DV?$StrTraitMFC_DLL@DV?$ChTraitsCRT@D@ATL@@@@@ATL@@XZ$11 1001feff f   Remain.obj
 0001:0001ef0b       __unwindfunclet$?TotalData@CRemain@@QAE?AV?$CStringT@DV?$StrTraitMFC_DLL@DV?$ChTraitsCRT@D@ATL@@@@@ATL@@XZ$12 1001ff0b f   Remain.obj
 0001:0001ef17       __unwindfunclet$?TotalData@CRemain@@QAE?AV?$CStringT@DV?$StrTraitMFC_DLL@DV?$ChTraitsCRT@D@ATL@@@@@ATL@@XZ$13 1001ff17 f   Remain.obj
 0001:0001ef23       __unwindfunclet$?TotalData@CRemain@@QAE?AV?$CStringT@DV?$StrTraitMFC_DLL@DV?$ChTraitsCRT@D@ATL@@@@@ATL@@XZ$14 1001ff23 f   Remain.obj
 0001:0001ef2f       __unwindfunclet$?TotalData@CRemain@@QAE?AV?$CStringT@DV?$StrTraitMFC_DLL@DV?$ChTraitsCRT@D@ATL@@@@@ATL@@XZ$15 1001ff2f f   Remain.obj
 0001:0001ef3b       __unwindfunclet$?TotalData@CRemain@@QAE?AV?$CStringT@DV?$StrTraitMFC_DLL@DV?$ChTraitsCRT@D@ATL@@@@@ATL@@XZ$16 1001ff3b f   Remain.obj
 0001:0001ef47       __unwindfunclet$?TotalData@CRemain@@QAE?AV?$CStringT@DV?$StrTraitMFC_DLL@DV?$ChTraitsCRT@D@ATL@@@@@ATL@@XZ$17 1001ff47 f   Remain.obj
 0001:0001ef53       __unwindfunclet$?TotalData@CRemain@@QAE?AV?$CStringT@DV?$StrTraitMFC_DLL@DV?$ChTraitsCRT@D@ATL@@@@@ATL@@XZ$18 1001ff53 f   Remain.obj
 0001:0001ef5f       __unwindfunclet$?TotalData@CRemain@@QAE?AV?$CStringT@DV?$StrTraitMFC_DLL@DV?$ChTraitsCRT@D@ATL@@@@@ATL@@XZ$19 1001ff5f f   Remain.obj
 0001:0001ef6b       __unwindfunclet$?TotalData@CRemain@@QAE?AV?$CStringT@DV?$StrTraitMFC_DLL@DV?$ChTraitsCRT@D@ATL@@@@@ATL@@XZ$20 1001ff6b f   Remain.obj
 0001:0001ef77       __unwindfunclet$?TotalData@CRemain@@QAE?AV?$CStringT@DV?$StrTraitMFC_DLL@DV?$ChTraitsCRT@D@ATL@@@@@ATL@@XZ$21 1001ff77 f   Remain.obj
 0001:0001ef83       __unwindfunclet$?TotalData@CRemain@@QAE?AV?$CStringT@DV?$StrTraitMFC_DLL@DV?$ChTraitsCRT@D@ATL@@@@@ATL@@XZ$22 1001ff83 f   Remain.obj
 0001:0001ef8f       __unwindfunclet$?TotalData@CRemain@@QAE?AV?$CStringT@DV?$StrTraitMFC_DLL@DV?$ChTraitsCRT@D@ATL@@@@@ATL@@XZ$23 1001ff8f f   Remain.obj
 0001:0001ef9b       __unwindfunclet$?TotalData@CRemain@@QAE?AV?$CStringT@DV?$StrTraitMFC_DLL@DV?$ChTraitsCRT@D@ATL@@@@@ATL@@XZ$24 1001ff9b f   Remain.obj
 0001:0001efa7       __unwindfunclet$?TotalData@CRemain@@QAE?AV?$CStringT@DV?$StrTraitMFC_DLL@DV?$ChTraitsCRT@D@ATL@@@@@ATL@@XZ$25 1001ffa7 f   Remain.obj
 0001:0001efb3       __unwindfunclet$?TotalData@CRemain@@QAE?AV?$CStringT@DV?$StrTraitMFC_DLL@DV?$ChTraitsCRT@D@ATL@@@@@ATL@@XZ$26 1001ffb3 f   Remain.obj
 0001:0001efbf       __unwindfunclet$?TotalData@CRemain@@QAE?AV?$CStringT@DV?$StrTraitMFC_DLL@DV?$ChTraitsCRT@D@ATL@@@@@ATL@@XZ$27 1001ffbf f   Remain.obj
 0001:0001efcb       __unwindfunclet$?TotalData@CRemain@@QAE?AV?$CStringT@DV?$StrTraitMFC_DLL@DV?$ChTraitsCRT@D@ATL@@@@@ATL@@XZ$28 1001ffcb f   Remain.obj
 0001:0001efd7       __unwindfunclet$?TotalData@CRemain@@QAE?AV?$CStringT@DV?$StrTraitMFC_DLL@DV?$ChTraitsCRT@D@ATL@@@@@ATL@@XZ$29 1001ffd7 f   Remain.obj
 0001:0001efe3       __unwindfunclet$?TotalData@CRemain@@QAE?AV?$CStringT@DV?$StrTraitMFC_DLL@DV?$ChTraitsCRT@D@ATL@@@@@ATL@@XZ$30 1001ffe3 f   Remain.obj
 0001:0001efef       __unwindfunclet$?TotalData@CRemain@@QAE?AV?$CStringT@DV?$StrTraitMFC_DLL@DV?$ChTraitsCRT@D@ATL@@@@@ATL@@XZ$31 1001ffef f   Remain.obj
 0001:0001effb       __unwindfunclet$?TotalData@CRemain@@QAE?AV?$CStringT@DV?$StrTraitMFC_DLL@DV?$ChTraitsCRT@D@ATL@@@@@ATL@@XZ$32 1001fffb f   Remain.obj
 0001:0001f007       __unwindfunclet$?TotalData@CRemain@@QAE?AV?$CStringT@DV?$StrTraitMFC_DLL@DV?$ChTraitsCRT@D@ATL@@@@@ATL@@XZ$33 10020007 f   Remain.obj
 0001:0001f013       __unwindfunclet$?TotalData@CRemain@@QAE?AV?$CStringT@DV?$StrTraitMFC_DLL@DV?$ChTraitsCRT@D@ATL@@@@@ATL@@XZ$34 10020013 f   Remain.obj
 0001:0001f01f       __unwindfunclet$?TotalData@CRemain@@QAE?AV?$CStringT@DV?$StrTraitMFC_DLL@DV?$ChTraitsCRT@D@ATL@@@@@ATL@@XZ$35 1002001f f   Remain.obj
 0001:0001f02b       __unwindfunclet$?TotalData@CRemain@@QAE?AV?$CStringT@DV?$StrTraitMFC_DLL@DV?$ChTraitsCRT@D@ATL@@@@@ATL@@XZ$36 1002002b f   Remain.obj
 0001:0001f037       __unwindfunclet$?TotalData@CRemain@@QAE?AV?$CStringT@DV?$StrTraitMFC_DLL@DV?$ChTraitsCRT@D@ATL@@@@@ATL@@XZ$37 10020037 f   Remain.obj
 0001:0001f043       __unwindfunclet$?TotalData@CRemain@@QAE?AV?$CStringT@DV?$StrTraitMFC_DLL@DV?$ChTraitsCRT@D@ATL@@@@@ATL@@XZ$38 10020043 f   Remain.obj
 0001:0001f04f       __unwindfunclet$?TotalData@CRemain@@QAE?AV?$CStringT@DV?$StrTraitMFC_DLL@DV?$ChTraitsCRT@D@ATL@@@@@ATL@@XZ$39 1002004f f   Remain.obj
 0001:0001f05b       __unwindfunclet$?TotalData@CRemain@@QAE?AV?$CStringT@DV?$StrTraitMFC_DLL@DV?$ChTraitsCRT@D@ATL@@@@@ATL@@XZ$40 1002005b f   Remain.obj
 0001:0001f067       __unwindfunclet$?TotalData@CRemain@@QAE?AV?$CStringT@DV?$StrTraitMFC_DLL@DV?$ChTraitsCRT@D@ATL@@@@@ATL@@XZ$41 10020067 f   Remain.obj
 0001:0001f073       __unwindfunclet$?TotalData@CRemain@@QAE?AV?$CStringT@DV?$StrTraitMFC_DLL@DV?$ChTraitsCRT@D@ATL@@@@@ATL@@XZ$42 10020073 f   Remain.obj
 0001:0001f07f       __unwindfunclet$?TotalData@CRemain@@QAE?AV?$CStringT@DV?$StrTraitMFC_DLL@DV?$ChTraitsCRT@D@ATL@@@@@ATL@@XZ$43 1002007f f   Remain.obj
 0001:0001f08b       __unwindfunclet$?TotalData@CRemain@@QAE?AV?$CStringT@DV?$StrTraitMFC_DLL@DV?$ChTraitsCRT@D@ATL@@@@@ATL@@XZ$44 1002008b f   Remain.obj
 0001:0001f09c       __ehhandler$?TotalData@CRemain@@QAE?AV?$CStringT@DV?$StrTraitMFC_DLL@DV?$ChTraitsCRT@D@ATL@@@@@ATL@@XZ 1002009c f   Remain.obj
 0001:0001f0bc       __unwindfunclet$?ParsingRemainData@CRemain@@QAEXPAD@Z$0 100200bc f   Remain.obj
 0001:0001f0c8       __unwindfunclet$?ParsingRemainData@CRemain@@QAEXPAD@Z$1 100200c8 f   Remain.obj
 0001:0001f0d4       __unwindfunclet$?ParsingRemainData@CRemain@@QAEXPAD@Z$2 100200d4 f   Remain.obj
 0001:0001f0e0       __unwindfunclet$?ParsingRemainData@CRemain@@QAEXPAD@Z$3 100200e0 f   Remain.obj
 0001:0001f0ec       __unwindfunclet$?ParsingRemainData@CRemain@@QAEXPAD@Z$4 100200ec f   Remain.obj
 0001:0001f0f8       __unwindfunclet$?ParsingRemainData@CRemain@@QAEXPAD@Z$5 100200f8 f   Remain.obj
 0001:0001f104       __unwindfunclet$?ParsingRemainData@CRemain@@QAEXPAD@Z$6 10020104 f   Remain.obj
 0001:0001f110       __unwindfunclet$?ParsingRemainData@CRemain@@QAEXPAD@Z$7 10020110 f   Remain.obj
 0001:0001f11c       __unwindfunclet$?ParsingRemainData@CRemain@@QAEXPAD@Z$8 1002011c f   Remain.obj
 0001:0001f128       __unwindfunclet$?ParsingRemainData@CRemain@@QAEXPAD@Z$9 10020128 f   Remain.obj
 0001:0001f134       __unwindfunclet$?ParsingRemainData@CRemain@@QAEXPAD@Z$10 10020134 f   Remain.obj
 0001:0001f140       __unwindfunclet$?ParsingRemainData@CRemain@@QAEXPAD@Z$11 10020140 f   Remain.obj
 0001:0001f14c       __unwindfunclet$?ParsingRemainData@CRemain@@QAEXPAD@Z$12 1002014c f   Remain.obj
 0001:0001f158       __unwindfunclet$?ParsingRemainData@CRemain@@QAEXPAD@Z$13 10020158 f   Remain.obj
 0001:0001f164       __unwindfunclet$?ParsingRemainData@CRemain@@QAEXPAD@Z$14 10020164 f   Remain.obj
 0001:0001f170       __unwindfunclet$?ParsingRemainData@CRemain@@QAEXPAD@Z$15 10020170 f   Remain.obj
 0001:0001f17c       __unwindfunclet$?ParsingRemainData@CRemain@@QAEXPAD@Z$16 1002017c f   Remain.obj
 0001:0001f188       __unwindfunclet$?ParsingRemainData@CRemain@@QAEXPAD@Z$17 10020188 f   Remain.obj
 0001:0001f194       __unwindfunclet$?ParsingRemainData@CRemain@@QAEXPAD@Z$18 10020194 f   Remain.obj
 0001:0001f1a0       __unwindfunclet$?ParsingRemainData@CRemain@@QAEXPAD@Z$19 100201a0 f   Remain.obj
 0001:0001f1ac       __unwindfunclet$?ParsingRemainData@CRemain@@QAEXPAD@Z$20 100201ac f   Remain.obj
 0001:0001f1b8       __unwindfunclet$?ParsingRemainData@CRemain@@QAEXPAD@Z$21 100201b8 f   Remain.obj
 0001:0001f1c9       __ehhandler$?ParsingRemainData@CRemain@@QAEXPAD@Z 100201c9 f   Remain.obj
 0001:0001f1f3       __unwindfunclet$?ParsingAllaccnData@CRemain@@QAEXV?$CStringT@DV?$StrTraitMFC_DLL@DV?$ChTraitsCRT@D@ATL@@@@@ATL@@@Z$0 100201f3 f   Remain.obj
 0001:0001f1fc       __unwindfunclet$?ParsingAllaccnData@CRemain@@QAEXV?$CStringT@DV?$StrTraitMFC_DLL@DV?$ChTraitsCRT@D@ATL@@@@@ATL@@@Z$2 100201fc f   Remain.obj
 0001:0001f205       __unwindfunclet$?ParsingAllaccnData@CRemain@@QAEXV?$CStringT@DV?$StrTraitMFC_DLL@DV?$ChTraitsCRT@D@ATL@@@@@ATL@@@Z$4 10020205 f   Remain.obj
 0001:0001f20e       __unwindfunclet$?ParsingAllaccnData@CRemain@@QAEXV?$CStringT@DV?$StrTraitMFC_DLL@DV?$ChTraitsCRT@D@ATL@@@@@ATL@@@Z$6 1002020e f   Remain.obj
 0001:0001f217       __unwindfunclet$?ParsingAllaccnData@CRemain@@QAEXV?$CStringT@DV?$StrTraitMFC_DLL@DV?$ChTraitsCRT@D@ATL@@@@@ATL@@@Z$8 10020217 f   Remain.obj
 0001:0001f220       __unwindfunclet$?ParsingAllaccnData@CRemain@@QAEXV?$CStringT@DV?$StrTraitMFC_DLL@DV?$ChTraitsCRT@D@ATL@@@@@ATL@@@Z$10 10020220 f   Remain.obj
 0001:0001f229       __unwindfunclet$?ParsingAllaccnData@CRemain@@QAEXV?$CStringT@DV?$StrTraitMFC_DLL@DV?$ChTraitsCRT@D@ATL@@@@@ATL@@@Z$12 10020229 f   Remain.obj
 0001:0001f232       __unwindfunclet$?ParsingAllaccnData@CRemain@@QAEXV?$CStringT@DV?$StrTraitMFC_DLL@DV?$ChTraitsCRT@D@ATL@@@@@ATL@@@Z$14 10020232 f   Remain.obj
 0001:0001f23b       __unwindfunclet$?ParsingAllaccnData@CRemain@@QAEXV?$CStringT@DV?$StrTraitMFC_DLL@DV?$ChTraitsCRT@D@ATL@@@@@ATL@@@Z$16 1002023b f   Remain.obj
 0001:0001f244       __unwindfunclet$?ParsingAllaccnData@CRemain@@QAEXV?$CStringT@DV?$StrTraitMFC_DLL@DV?$ChTraitsCRT@D@ATL@@@@@ATL@@@Z$18 10020244 f   Remain.obj
 0001:0001f24d       __unwindfunclet$?ParsingAllaccnData@CRemain@@QAEXV?$CStringT@DV?$StrTraitMFC_DLL@DV?$ChTraitsCRT@D@ATL@@@@@ATL@@@Z$20 1002024d f   Remain.obj
 0001:0001f259       __unwindfunclet$?ParsingAllaccnData@CRemain@@QAEXV?$CStringT@DV?$StrTraitMFC_DLL@DV?$ChTraitsCRT@D@ATL@@@@@ATL@@@Z$22 10020259 f   Remain.obj
 0001:0001f265       __unwindfunclet$?ParsingAllaccnData@CRemain@@QAEXV?$CStringT@DV?$StrTraitMFC_DLL@DV?$ChTraitsCRT@D@ATL@@@@@ATL@@@Z$24 10020265 f   Remain.obj
 0001:0001f271       __unwindfunclet$?ParsingAllaccnData@CRemain@@QAEXV?$CStringT@DV?$StrTraitMFC_DLL@DV?$ChTraitsCRT@D@ATL@@@@@ATL@@@Z$26 10020271 f   Remain.obj
 0001:0001f27d       __unwindfunclet$?ParsingAllaccnData@CRemain@@QAEXV?$CStringT@DV?$StrTraitMFC_DLL@DV?$ChTraitsCRT@D@ATL@@@@@ATL@@@Z$28 1002027d f   Remain.obj
 0001:0001f28e       __ehhandler$?ParsingAllaccnData@CRemain@@QAEXV?$CStringT@DV?$StrTraitMFC_DLL@DV?$ChTraitsCRT@D@ATL@@@@@ATL@@@Z 1002028e f   Remain.obj
 0001:0001f2ae       __unwindfunclet$?CalRemainData@CRemain@@QAEHAAVCMapStringToString@@V?$CStringT@DV?$StrTraitMFC_DLL@DV?$ChTraitsCRT@D@ATL@@@@@ATL@@_N@Z$0 100202ae f   Remain.obj
 0001:0001f2b7       __unwindfunclet$?CalRemainData@CRemain@@QAEHAAVCMapStringToString@@V?$CStringT@DV?$StrTraitMFC_DLL@DV?$ChTraitsCRT@D@ATL@@@@@ATL@@_N@Z$1 100202b7 f   Remain.obj
 0001:0001f2c0       __unwindfunclet$?CalRemainData@CRemain@@QAEHAAVCMapStringToString@@V?$CStringT@DV?$StrTraitMFC_DLL@DV?$ChTraitsCRT@D@ATL@@@@@ATL@@_N@Z$2 100202c0 f   Remain.obj
 0001:0001f2c9       __unwindfunclet$?CalRemainData@CRemain@@QAEHAAVCMapStringToString@@V?$CStringT@DV?$StrTraitMFC_DLL@DV?$ChTraitsCRT@D@ATL@@@@@ATL@@_N@Z$3 100202c9 f   Remain.obj
 0001:0001f2d2       __unwindfunclet$?CalRemainData@CRemain@@QAEHAAVCMapStringToString@@V?$CStringT@DV?$StrTraitMFC_DLL@DV?$ChTraitsCRT@D@ATL@@@@@ATL@@_N@Z$4 100202d2 f   Remain.obj
 0001:0001f2db       __unwindfunclet$?CalRemainData@CRemain@@QAEHAAVCMapStringToString@@V?$CStringT@DV?$StrTraitMFC_DLL@DV?$ChTraitsCRT@D@ATL@@@@@ATL@@_N@Z$5 100202db f   Remain.obj
 0001:0001f2e4       __unwindfunclet$?CalRemainData@CRemain@@QAEHAAVCMapStringToString@@V?$CStringT@DV?$StrTraitMFC_DLL@DV?$ChTraitsCRT@D@ATL@@@@@ATL@@_N@Z$6 100202e4 f   Remain.obj
 0001:0001f2ed       __unwindfunclet$?CalRemainData@CRemain@@QAEHAAVCMapStringToString@@V?$CStringT@DV?$StrTraitMFC_DLL@DV?$ChTraitsCRT@D@ATL@@@@@ATL@@_N@Z$7 100202ed f   Remain.obj
 0001:0001f2f6       __unwindfunclet$?CalRemainData@CRemain@@QAEHAAVCMapStringToString@@V?$CStringT@DV?$StrTraitMFC_DLL@DV?$ChTraitsCRT@D@ATL@@@@@ATL@@_N@Z$8 100202f6 f   Remain.obj
 0001:0001f2ff       __unwindfunclet$?CalRemainData@CRemain@@QAEHAAVCMapStringToString@@V?$CStringT@DV?$StrTraitMFC_DLL@DV?$ChTraitsCRT@D@ATL@@@@@ATL@@_N@Z$9 100202ff f   Remain.obj
 0001:0001f308       __unwindfunclet$?CalRemainData@CRemain@@QAEHAAVCMapStringToString@@V?$CStringT@DV?$StrTraitMFC_DLL@DV?$ChTraitsCRT@D@ATL@@@@@ATL@@_N@Z$10 10020308 f   Remain.obj
 0001:0001f311       __unwindfunclet$?CalRemainData@CRemain@@QAEHAAVCMapStringToString@@V?$CStringT@DV?$StrTraitMFC_DLL@DV?$ChTraitsCRT@D@ATL@@@@@ATL@@_N@Z$11 10020311 f   Remain.obj
 0001:0001f31a       __unwindfunclet$?CalRemainData@CRemain@@QAEHAAVCMapStringToString@@V?$CStringT@DV?$StrTraitMFC_DLL@DV?$ChTraitsCRT@D@ATL@@@@@ATL@@_N@Z$12 1002031a f   Remain.obj
 0001:0001f323       __unwindfunclet$?CalRemainData@CRemain@@QAEHAAVCMapStringToString@@V?$CStringT@DV?$StrTraitMFC_DLL@DV?$ChTraitsCRT@D@ATL@@@@@ATL@@_N@Z$13 10020323 f   Remain.obj
 0001:0001f32f       __unwindfunclet$?CalRemainData@CRemain@@QAEHAAVCMapStringToString@@V?$CStringT@DV?$StrTraitMFC_DLL@DV?$ChTraitsCRT@D@ATL@@@@@ATL@@_N@Z$14 1002032f f   Remain.obj
 0001:0001f338       __unwindfunclet$?CalRemainData@CRemain@@QAEHAAVCMapStringToString@@V?$CStringT@DV?$StrTraitMFC_DLL@DV?$ChTraitsCRT@D@ATL@@@@@ATL@@_N@Z$15 10020338 f   Remain.obj
 0001:0001f349       __ehhandler$?CalRemainData@CRemain@@QAEHAAVCMapStringToString@@V?$CStringT@DV?$StrTraitMFC_DLL@DV?$ChTraitsCRT@D@ATL@@@@@ATL@@_N@Z 10020349 f   Remain.obj
 0001:0001f369       __unwindfunclet$?CalPgsonik@CRemain@@QAE_NV?$CStringT@DV?$StrTraitMFC_DLL@DV?$ChTraitsCRT@D@ATL@@@@@ATL@@0H@Z$0 10020369 f   Remain.obj
 0001:0001f372       __unwindfunclet$?CalPgsonik@CRemain@@QAE_NV?$CStringT@DV?$StrTraitMFC_DLL@DV?$ChTraitsCRT@D@ATL@@@@@ATL@@0H@Z$1 10020372 f   Remain.obj
 0001:0001f37b       __unwindfunclet$?CalPgsonik@CRemain@@QAE_NV?$CStringT@DV?$StrTraitMFC_DLL@DV?$ChTraitsCRT@D@ATL@@@@@ATL@@0H@Z$3 1002037b f   Remain.obj
 0001:0001f395       __unwindfunclet$?CalPgsonik@CRemain@@QAE_NV?$CStringT@DV?$StrTraitMFC_DLL@DV?$ChTraitsCRT@D@ATL@@@@@ATL@@0H@Z$8 10020395 f   Remain.obj
 0001:0001f39e       __unwindfunclet$?CalPgsonik@CRemain@@QAE_NV?$CStringT@DV?$StrTraitMFC_DLL@DV?$ChTraitsCRT@D@ATL@@@@@ATL@@0H@Z$9 1002039e f   Remain.obj
 0001:0001f3aa       __unwindfunclet$?CalPgsonik@CRemain@@QAE_NV?$CStringT@DV?$StrTraitMFC_DLL@DV?$ChTraitsCRT@D@ATL@@@@@ATL@@0H@Z$10 100203aa f   Remain.obj
 0001:0001f3b6       __unwindfunclet$?CalPgsonik@CRemain@@QAE_NV?$CStringT@DV?$StrTraitMFC_DLL@DV?$ChTraitsCRT@D@ATL@@@@@ATL@@0H@Z$11 100203b6 f   Remain.obj
 0001:0001f3c2       __unwindfunclet$?CalPgsonik@CRemain@@QAE_NV?$CStringT@DV?$StrTraitMFC_DLL@DV?$ChTraitsCRT@D@ATL@@@@@ATL@@0H@Z$12 100203c2 f   Remain.obj
 0001:0001f3ce       __unwindfunclet$?CalPgsonik@CRemain@@QAE_NV?$CStringT@DV?$StrTraitMFC_DLL@DV?$ChTraitsCRT@D@ATL@@@@@ATL@@0H@Z$15 100203ce f   Remain.obj
 0001:0001f3da       __unwindfunclet$?CalPgsonik@CRemain@@QAE_NV?$CStringT@DV?$StrTraitMFC_DLL@DV?$ChTraitsCRT@D@ATL@@@@@ATL@@0H@Z$16 100203da f   Remain.obj
 0001:0001f3e6       __unwindfunclet$?CalPgsonik@CRemain@@QAE_NV?$CStringT@DV?$StrTraitMFC_DLL@DV?$ChTraitsCRT@D@ATL@@@@@ATL@@0H@Z$17 100203e6 f   Remain.obj
 0001:0001f3f2       __unwindfunclet$?CalPgsonik@CRemain@@QAE_NV?$CStringT@DV?$StrTraitMFC_DLL@DV?$ChTraitsCRT@D@ATL@@@@@ATL@@0H@Z$18 100203f2 f   Remain.obj
 0001:0001f403       __ehhandler$?CalPgsonik@CRemain@@QAE_NV?$CStringT@DV?$StrTraitMFC_DLL@DV?$ChTraitsCRT@D@ATL@@@@@ATL@@0H@Z 10020403 f   Remain.obj
 0001:0001f423       __unwindfunclet$?FillString@CRemain@@QAEXAAV?$CStringT@DV?$StrTraitMFC_DLL@DV?$ChTraitsCRT@D@ATL@@@@@ATL@@H@Z$0 10020423 f   Remain.obj
 0001:0001f431       __ehhandler$?FillString@CRemain@@QAEXAAV?$CStringT@DV?$StrTraitMFC_DLL@DV?$ChTraitsCRT@D@ATL@@@@@ATL@@H@Z 10020431 f   Remain.obj
 0001:0001f44e       __unwindfunclet$?getFormatData@CRemain@@AAE?AV?$CStringT@DV?$StrTraitMFC_DLL@DV?$ChTraitsCRT@D@ATL@@@@@ATL@@V23@@Z$0 1002044e f   Remain.obj
 0001:0001f457       __unwindfunclet$?getFormatData@CRemain@@AAE?AV?$CStringT@DV?$StrTraitMFC_DLL@DV?$ChTraitsCRT@D@ATL@@@@@ATL@@V23@@Z$1 10020457 f   Remain.obj
 0001:0001f460       __unwindfunclet$?getFormatData@CRemain@@AAE?AV?$CStringT@DV?$StrTraitMFC_DLL@DV?$ChTraitsCRT@D@ATL@@@@@ATL@@V23@@Z$2 10020460 f   Remain.obj
 0001:0001f46e       __ehhandler$?getFormatData@CRemain@@AAE?AV?$CStringT@DV?$StrTraitMFC_DLL@DV?$ChTraitsCRT@D@ATL@@@@@ATL@@V23@@Z 1002046e f   Remain.obj
 0001:0001f48b       __unwindfunclet$?getCredit@CRemain@@AAE?AV?$CStringT@DV?$StrTraitMFC_DLL@DV?$ChTraitsCRT@D@ATL@@@@@ATL@@V23@@Z$0 1002048b f   Remain.obj
 0001:0001f494       __unwindfunclet$?getCredit@CRemain@@AAE?AV?$CStringT@DV?$StrTraitMFC_DLL@DV?$ChTraitsCRT@D@ATL@@@@@ATL@@V23@@Z$2 10020494 f   Remain.obj
 0001:0001f4a2       __ehhandler$?getCredit@CRemain@@AAE?AV?$CStringT@DV?$StrTraitMFC_DLL@DV?$ChTraitsCRT@D@ATL@@@@@ATL@@V23@@Z 100204a2 f   Remain.obj
 0001:0001f4bf       __unwindfunclet$?getCreditX@CRemain@@AAE?AV?$CStringT@DV?$StrTraitMFC_DLL@DV?$ChTraitsCRT@D@ATL@@@@@ATL@@V23@@Z$0 100204bf f   Remain.obj
 0001:0001f4c8       __unwindfunclet$?getCreditX@CRemain@@AAE?AV?$CStringT@DV?$StrTraitMFC_DLL@DV?$ChTraitsCRT@D@ATL@@@@@ATL@@V23@@Z$2 100204c8 f   Remain.obj
 0001:0001f4d6       __ehhandler$?getCreditX@CRemain@@AAE?AV?$CStringT@DV?$StrTraitMFC_DLL@DV?$ChTraitsCRT@D@ATL@@@@@ATL@@V23@@Z 100204d6 f   Remain.obj
 0001:0001f4f3       __unwindfunclet$?testSaveFile@CRemain@@QAEXV?$CStringT@DV?$StrTraitMFC_DLL@DV?$ChTraitsCRT@D@ATL@@@@@ATL@@@Z$0 100204f3 f   Remain.obj
 0001:0001f4fc       __unwindfunclet$?testSaveFile@CRemain@@QAEXV?$CStringT@DV?$StrTraitMFC_DLL@DV?$ChTraitsCRT@D@ATL@@@@@ATL@@@Z$1 100204fc f   Remain.obj
 0001:0001f505       __unwindfunclet$?testSaveFile@CRemain@@QAEXV?$CStringT@DV?$StrTraitMFC_DLL@DV?$ChTraitsCRT@D@ATL@@@@@ATL@@@Z$2 10020505 f   Remain.obj
 0001:0001f50e       __unwindfunclet$?testSaveFile@CRemain@@QAEXV?$CStringT@DV?$StrTraitMFC_DLL@DV?$ChTraitsCRT@D@ATL@@@@@ATL@@@Z$3 1002050e f   Remain.obj
 0001:0001f517       __unwindfunclet$?testSaveFile@CRemain@@QAEXV?$CStringT@DV?$StrTraitMFC_DLL@DV?$ChTraitsCRT@D@ATL@@@@@ATL@@@Z$4 10020517 f   Remain.obj
 0001:0001f520       __unwindfunclet$?testSaveFile@CRemain@@QAEXV?$CStringT@DV?$StrTraitMFC_DLL@DV?$ChTraitsCRT@D@ATL@@@@@ATL@@@Z$5 10020520 f   Remain.obj
 0001:0001f52d       __ehhandler$?testSaveFile@CRemain@@QAEXV?$CStringT@DV?$StrTraitMFC_DLL@DV?$ChTraitsCRT@D@ATL@@@@@ATL@@@Z 1002052d f   Remain.obj
 0001:0001f560       __unwindfunclet$?Serialize@?$CMap@HHV?$CStringT@DV?$StrTraitMFC_DLL@DV?$ChTraitsCRT@D@ATL@@@@@ATL@@V12@@@UAEXAAVCArchive@@@Z$0 10020560 f   Remain.obj
 0001:0001f579       __ehhandler$?Serialize@?$CMap@HHV?$CStringT@DV?$StrTraitMFC_DLL@DV?$ChTraitsCRT@D@ATL@@@@@ATL@@V12@@@UAEXAAVCArchive@@@Z 10020579 f   Remain.obj
 0001:0001f5a0       __unwindfunclet$?SetAt@?$CMap@HHV?$CStringT@DV?$StrTraitMFC_DLL@DV?$ChTraitsCRT@D@ATL@@@@@ATL@@V12@@@QAEXHV?$CStringT@DV?$StrTraitMFC_DLL@DV?$ChTraitsCRT@D@ATL@@@@@ATL@@@Z$0 100205a0 f   Remain.obj
 0001:0001f5ae       __ehhandler$?SetAt@?$CMap@HHV?$CStringT@DV?$StrTraitMFC_DLL@DV?$ChTraitsCRT@D@ATL@@@@@ATL@@V12@@@QAEXHV?$CStringT@DV?$StrTraitMFC_DLL@DV?$ChTraitsCRT@D@ATL@@@@@ATL@@@Z 100205ae f   Remain.obj
 0001:0001f5d0       __unwindfunclet$?parser@CRemain@@AAE?AV?$CStringT@DV?$StrTraitMFC_DLL@DV?$ChTraitsCRT@D@ATL@@@@@ATL@@AAV23@V23@@Z$0 100205d0 f   Remain.obj
 0001:0001f5d9       __unwindfunclet$?parser@CRemain@@AAE?AV?$CStringT@DV?$StrTraitMFC_DLL@DV?$ChTraitsCRT@D@ATL@@@@@ATL@@AAV23@V23@@Z$1 100205d9 f   Remain.obj
 0001:0001f5e2       __unwindfunclet$?parser@CRemain@@AAE?AV?$CStringT@DV?$StrTraitMFC_DLL@DV?$ChTraitsCRT@D@ATL@@@@@ATL@@AAV23@V23@@Z$3 100205e2 f   Remain.obj
 0001:0001f5eb       __unwindfunclet$?parser@CRemain@@AAE?AV?$CStringT@DV?$StrTraitMFC_DLL@DV?$ChTraitsCRT@D@ATL@@@@@ATL@@AAV23@V23@@Z$4 100205eb f   Remain.obj
 0001:0001f5f9       __ehhandler$?parser@CRemain@@AAE?AV?$CStringT@DV?$StrTraitMFC_DLL@DV?$ChTraitsCRT@D@ATL@@@@@ATL@@AAV23@V23@@Z 100205f9 f   Remain.obj
 0001:0001f620       __unwindfunclet$??0CRemainFuture@@QAE@XZ$0 10020620 f   RemainFuture.obj
 0001:0001f628       __unwindfunclet$??0CRemainFuture@@QAE@XZ$1 10020628 f   RemainFuture.obj
 0001:0001f637       __unwindfunclet$??0CRemainFuture@@QAE@XZ$2 10020637 f   RemainFuture.obj
 0001:0001f646       __unwindfunclet$??0CRemainFuture@@QAE@XZ$3 10020646 f   RemainFuture.obj
 0001:0001f655       __unwindfunclet$??0CRemainFuture@@QAE@XZ$4 10020655 f   RemainFuture.obj
 0001:0001f664       __unwindfunclet$??0CRemainFuture@@QAE@XZ$5 10020664 f   RemainFuture.obj
 0001:0001f673       __unwindfunclet$??0CRemainFuture@@QAE@XZ$6 10020673 f   RemainFuture.obj
 0001:0001f682       __unwindfunclet$??0CRemainFuture@@QAE@XZ$7 10020682 f   RemainFuture.obj
 0001:0001f691       __unwindfunclet$??0CRemainFuture@@QAE@XZ$8 10020691 f   RemainFuture.obj
 0001:0001f6a0       __unwindfunclet$??0CRemainFuture@@QAE@XZ$9 100206a0 f   RemainFuture.obj
 0001:0001f6af       __unwindfunclet$??0CRemainFuture@@QAE@XZ$10 100206af f   RemainFuture.obj
 0001:0001f6be       __unwindfunclet$??0CRemainFuture@@QAE@XZ$11 100206be f   RemainFuture.obj
 0001:0001f6cd       __unwindfunclet$??0CRemainFuture@@QAE@XZ$12 100206cd f   RemainFuture.obj
 0001:0001f6dc       __unwindfunclet$??0CRemainFuture@@QAE@XZ$13 100206dc f   RemainFuture.obj
 0001:0001f6eb       __unwindfunclet$??0CRemainFuture@@QAE@XZ$14 100206eb f   RemainFuture.obj
 0001:0001f6fa       __unwindfunclet$??0CRemainFuture@@QAE@XZ$15 100206fa f   RemainFuture.obj
 0001:0001f70d       __ehhandler$??0CRemainFuture@@QAE@XZ 1002070d f   RemainFuture.obj
 0001:0001f72a       __unwindfunclet$??0CRemainFuture@@QAE@PAVCWnd@@@Z$0 1002072a f   RemainFuture.obj
 0001:0001f732       __unwindfunclet$??0CRemainFuture@@QAE@PAVCWnd@@@Z$1 10020732 f   RemainFuture.obj
 0001:0001f741       __unwindfunclet$??0CRemainFuture@@QAE@PAVCWnd@@@Z$2 10020741 f   RemainFuture.obj
 0001:0001f750       __unwindfunclet$??0CRemainFuture@@QAE@PAVCWnd@@@Z$3 10020750 f   RemainFuture.obj
 0001:0001f75f       __unwindfunclet$??0CRemainFuture@@QAE@PAVCWnd@@@Z$4 1002075f f   RemainFuture.obj
 0001:0001f76e       __unwindfunclet$??0CRemainFuture@@QAE@PAVCWnd@@@Z$5 1002076e f   RemainFuture.obj
 0001:0001f77d       __unwindfunclet$??0CRemainFuture@@QAE@PAVCWnd@@@Z$6 1002077d f   RemainFuture.obj
 0001:0001f78c       __unwindfunclet$??0CRemainFuture@@QAE@PAVCWnd@@@Z$7 1002078c f   RemainFuture.obj
 0001:0001f79b       __unwindfunclet$??0CRemainFuture@@QAE@PAVCWnd@@@Z$8 1002079b f   RemainFuture.obj
 0001:0001f7aa       __unwindfunclet$??0CRemainFuture@@QAE@PAVCWnd@@@Z$9 100207aa f   RemainFuture.obj
 0001:0001f7b9       __unwindfunclet$??0CRemainFuture@@QAE@PAVCWnd@@@Z$10 100207b9 f   RemainFuture.obj
 0001:0001f7c8       __unwindfunclet$??0CRemainFuture@@QAE@PAVCWnd@@@Z$11 100207c8 f   RemainFuture.obj
 0001:0001f7d7       __unwindfunclet$??0CRemainFuture@@QAE@PAVCWnd@@@Z$12 100207d7 f   RemainFuture.obj
 0001:0001f7e6       __unwindfunclet$??0CRemainFuture@@QAE@PAVCWnd@@@Z$13 100207e6 f   RemainFuture.obj
 0001:0001f7f5       __unwindfunclet$??0CRemainFuture@@QAE@PAVCWnd@@@Z$14 100207f5 f   RemainFuture.obj
 0001:0001f804       __unwindfunclet$??0CRemainFuture@@QAE@PAVCWnd@@@Z$15 10020804 f   RemainFuture.obj
 0001:0001f817       __ehhandler$??0CRemainFuture@@QAE@PAVCWnd@@@Z 10020817 f   RemainFuture.obj
 0001:0001f834       __unwindfunclet$?TotalData@CRemainFuture@@QAE?AV?$CStringT@DV?$StrTraitMFC_DLL@DV?$ChTraitsCRT@D@ATL@@@@@ATL@@XZ$0 10020834 f   RemainFuture.obj
 0001:0001f83d       __unwindfunclet$?TotalData@CRemainFuture@@QAE?AV?$CStringT@DV?$StrTraitMFC_DLL@DV?$ChTraitsCRT@D@ATL@@@@@ATL@@XZ$1 1002083d f   RemainFuture.obj
 0001:0001f846       __unwindfunclet$?TotalData@CRemainFuture@@QAE?AV?$CStringT@DV?$StrTraitMFC_DLL@DV?$ChTraitsCRT@D@ATL@@@@@ATL@@XZ$2 10020846 f   RemainFuture.obj
 0001:0001f84f       __unwindfunclet$?TotalData@CRemainFuture@@QAE?AV?$CStringT@DV?$StrTraitMFC_DLL@DV?$ChTraitsCRT@D@ATL@@@@@ATL@@XZ$4 1002084f f   RemainFuture.obj
 0001:0001f85b       __unwindfunclet$?TotalData@CRemainFuture@@QAE?AV?$CStringT@DV?$StrTraitMFC_DLL@DV?$ChTraitsCRT@D@ATL@@@@@ATL@@XZ$5 1002085b f   RemainFuture.obj
 0001:0001f867       __unwindfunclet$?TotalData@CRemainFuture@@QAE?AV?$CStringT@DV?$StrTraitMFC_DLL@DV?$ChTraitsCRT@D@ATL@@@@@ATL@@XZ$6 10020867 f   RemainFuture.obj
 0001:0001f873       __unwindfunclet$?TotalData@CRemainFuture@@QAE?AV?$CStringT@DV?$StrTraitMFC_DLL@DV?$ChTraitsCRT@D@ATL@@@@@ATL@@XZ$7 10020873 f   RemainFuture.obj
 0001:0001f87f       __unwindfunclet$?TotalData@CRemainFuture@@QAE?AV?$CStringT@DV?$StrTraitMFC_DLL@DV?$ChTraitsCRT@D@ATL@@@@@ATL@@XZ$8 1002087f f   RemainFuture.obj
 0001:0001f88b       __unwindfunclet$?TotalData@CRemainFuture@@QAE?AV?$CStringT@DV?$StrTraitMFC_DLL@DV?$ChTraitsCRT@D@ATL@@@@@ATL@@XZ$9 1002088b f   RemainFuture.obj
 0001:0001f897       __unwindfunclet$?TotalData@CRemainFuture@@QAE?AV?$CStringT@DV?$StrTraitMFC_DLL@DV?$ChTraitsCRT@D@ATL@@@@@ATL@@XZ$10 10020897 f   RemainFuture.obj
 0001:0001f8a3       __unwindfunclet$?TotalData@CRemainFuture@@QAE?AV?$CStringT@DV?$StrTraitMFC_DLL@DV?$ChTraitsCRT@D@ATL@@@@@ATL@@XZ$11 100208a3 f   RemainFuture.obj
 0001:0001f8af       __unwindfunclet$?TotalData@CRemainFuture@@QAE?AV?$CStringT@DV?$StrTraitMFC_DLL@DV?$ChTraitsCRT@D@ATL@@@@@ATL@@XZ$12 100208af f   RemainFuture.obj
 0001:0001f8bb       __unwindfunclet$?TotalData@CRemainFuture@@QAE?AV?$CStringT@DV?$StrTraitMFC_DLL@DV?$ChTraitsCRT@D@ATL@@@@@ATL@@XZ$13 100208bb f   RemainFuture.obj
 0001:0001f8c7       __unwindfunclet$?TotalData@CRemainFuture@@QAE?AV?$CStringT@DV?$StrTraitMFC_DLL@DV?$ChTraitsCRT@D@ATL@@@@@ATL@@XZ$14 100208c7 f   RemainFuture.obj
 0001:0001f8d3       __unwindfunclet$?TotalData@CRemainFuture@@QAE?AV?$CStringT@DV?$StrTraitMFC_DLL@DV?$ChTraitsCRT@D@ATL@@@@@ATL@@XZ$15 100208d3 f   RemainFuture.obj
 0001:0001f8df       __unwindfunclet$?TotalData@CRemainFuture@@QAE?AV?$CStringT@DV?$StrTraitMFC_DLL@DV?$ChTraitsCRT@D@ATL@@@@@ATL@@XZ$16 100208df f   RemainFuture.obj
 0001:0001f8eb       __unwindfunclet$?TotalData@CRemainFuture@@QAE?AV?$CStringT@DV?$StrTraitMFC_DLL@DV?$ChTraitsCRT@D@ATL@@@@@ATL@@XZ$17 100208eb f   RemainFuture.obj
 0001:0001f8f7       __unwindfunclet$?TotalData@CRemainFuture@@QAE?AV?$CStringT@DV?$StrTraitMFC_DLL@DV?$ChTraitsCRT@D@ATL@@@@@ATL@@XZ$18 100208f7 f   RemainFuture.obj
 0001:0001f903       __unwindfunclet$?TotalData@CRemainFuture@@QAE?AV?$CStringT@DV?$StrTraitMFC_DLL@DV?$ChTraitsCRT@D@ATL@@@@@ATL@@XZ$19 10020903 f   RemainFuture.obj
 0001:0001f90f       __unwindfunclet$?TotalData@CRemainFuture@@QAE?AV?$CStringT@DV?$StrTraitMFC_DLL@DV?$ChTraitsCRT@D@ATL@@@@@ATL@@XZ$20 1002090f f   RemainFuture.obj
 0001:0001f91b       __unwindfunclet$?TotalData@CRemainFuture@@QAE?AV?$CStringT@DV?$StrTraitMFC_DLL@DV?$ChTraitsCRT@D@ATL@@@@@ATL@@XZ$21 1002091b f   RemainFuture.obj
 0001:0001f927       __unwindfunclet$?TotalData@CRemainFuture@@QAE?AV?$CStringT@DV?$StrTraitMFC_DLL@DV?$ChTraitsCRT@D@ATL@@@@@ATL@@XZ$22 10020927 f   RemainFuture.obj
 0001:0001f933       __unwindfunclet$?TotalData@CRemainFuture@@QAE?AV?$CStringT@DV?$StrTraitMFC_DLL@DV?$ChTraitsCRT@D@ATL@@@@@ATL@@XZ$23 10020933 f   RemainFuture.obj
 0001:0001f93f       __unwindfunclet$?TotalData@CRemainFuture@@QAE?AV?$CStringT@DV?$StrTraitMFC_DLL@DV?$ChTraitsCRT@D@ATL@@@@@ATL@@XZ$24 1002093f f   RemainFuture.obj
 0001:0001f94b       __unwindfunclet$?TotalData@CRemainFuture@@QAE?AV?$CStringT@DV?$StrTraitMFC_DLL@DV?$ChTraitsCRT@D@ATL@@@@@ATL@@XZ$25 1002094b f   RemainFuture.obj
 0001:0001f957       __unwindfunclet$?TotalData@CRemainFuture@@QAE?AV?$CStringT@DV?$StrTraitMFC_DLL@DV?$ChTraitsCRT@D@ATL@@@@@ATL@@XZ$26 10020957 f   RemainFuture.obj
 0001:0001f963       __unwindfunclet$?TotalData@CRemainFuture@@QAE?AV?$CStringT@DV?$StrTraitMFC_DLL@DV?$ChTraitsCRT@D@ATL@@@@@ATL@@XZ$27 10020963 f   RemainFuture.obj
 0001:0001f96f       __unwindfunclet$?TotalData@CRemainFuture@@QAE?AV?$CStringT@DV?$StrTraitMFC_DLL@DV?$ChTraitsCRT@D@ATL@@@@@ATL@@XZ$28 1002096f f   RemainFuture.obj
 0001:0001f97b       __unwindfunclet$?TotalData@CRemainFuture@@QAE?AV?$CStringT@DV?$StrTraitMFC_DLL@DV?$ChTraitsCRT@D@ATL@@@@@ATL@@XZ$29 1002097b f   RemainFuture.obj
 0001:0001f987       __unwindfunclet$?TotalData@CRemainFuture@@QAE?AV?$CStringT@DV?$StrTraitMFC_DLL@DV?$ChTraitsCRT@D@ATL@@@@@ATL@@XZ$30 10020987 f   RemainFuture.obj
 0001:0001f995       __ehhandler$?TotalData@CRemainFuture@@QAE?AV?$CStringT@DV?$StrTraitMFC_DLL@DV?$ChTraitsCRT@D@ATL@@@@@ATL@@XZ 10020995 f   RemainFuture.obj
 0001:0001f9b5       __unwindfunclet$?ParsingRemainData@CRemainFuture@@QAEXPAD@Z$0 100209b5 f   RemainFuture.obj
 0001:0001f9c1       __unwindfunclet$?ParsingRemainData@CRemainFuture@@QAEXPAD@Z$1 100209c1 f   RemainFuture.obj
 0001:0001f9cd       __unwindfunclet$?ParsingRemainData@CRemainFuture@@QAEXPAD@Z$2 100209cd f   RemainFuture.obj
 0001:0001f9d9       __unwindfunclet$?ParsingRemainData@CRemainFuture@@QAEXPAD@Z$3 100209d9 f   RemainFuture.obj
 0001:0001f9e5       __unwindfunclet$?ParsingRemainData@CRemainFuture@@QAEXPAD@Z$4 100209e5 f   RemainFuture.obj
 0001:0001f9f1       __unwindfunclet$?ParsingRemainData@CRemainFuture@@QAEXPAD@Z$5 100209f1 f   RemainFuture.obj
 0001:0001f9fd       __unwindfunclet$?ParsingRemainData@CRemainFuture@@QAEXPAD@Z$6 100209fd f   RemainFuture.obj
 0001:0001fa09       __unwindfunclet$?ParsingRemainData@CRemainFuture@@QAEXPAD@Z$7 10020a09 f   RemainFuture.obj
 0001:0001fa15       __unwindfunclet$?ParsingRemainData@CRemainFuture@@QAEXPAD@Z$8 10020a15 f   RemainFuture.obj
 0001:0001fa21       __unwindfunclet$?ParsingRemainData@CRemainFuture@@QAEXPAD@Z$9 10020a21 f   RemainFuture.obj
 0001:0001fa2d       __unwindfunclet$?ParsingRemainData@CRemainFuture@@QAEXPAD@Z$10 10020a2d f   RemainFuture.obj
 0001:0001fa39       __unwindfunclet$?ParsingRemainData@CRemainFuture@@QAEXPAD@Z$11 10020a39 f   RemainFuture.obj
 0001:0001fa45       __unwindfunclet$?ParsingRemainData@CRemainFuture@@QAEXPAD@Z$12 10020a45 f   RemainFuture.obj
 0001:0001fa56       __ehhandler$?ParsingRemainData@CRemainFuture@@QAEXPAD@Z 10020a56 f   RemainFuture.obj
 0001:0001fa80       __unwindfunclet$?ParsingAllaccnData@CRemainFuture@@QAEXV?$CStringT@DV?$StrTraitMFC_DLL@DV?$ChTraitsCRT@D@ATL@@@@@ATL@@@Z$0 10020a80 f   RemainFuture.obj
 0001:0001fa89       __unwindfunclet$?ParsingAllaccnData@CRemainFuture@@QAEXV?$CStringT@DV?$StrTraitMFC_DLL@DV?$ChTraitsCRT@D@ATL@@@@@ATL@@@Z$2 10020a89 f   RemainFuture.obj
 0001:0001fa92       __unwindfunclet$?ParsingAllaccnData@CRemainFuture@@QAEXV?$CStringT@DV?$StrTraitMFC_DLL@DV?$ChTraitsCRT@D@ATL@@@@@ATL@@@Z$4 10020a92 f   RemainFuture.obj
 0001:0001fa9b       __unwindfunclet$?ParsingAllaccnData@CRemainFuture@@QAEXV?$CStringT@DV?$StrTraitMFC_DLL@DV?$ChTraitsCRT@D@ATL@@@@@ATL@@@Z$6 10020a9b f   RemainFuture.obj
 0001:0001faa4       __unwindfunclet$?ParsingAllaccnData@CRemainFuture@@QAEXV?$CStringT@DV?$StrTraitMFC_DLL@DV?$ChTraitsCRT@D@ATL@@@@@ATL@@@Z$8 10020aa4 f   RemainFuture.obj
 0001:0001faad       __unwindfunclet$?ParsingAllaccnData@CRemainFuture@@QAEXV?$CStringT@DV?$StrTraitMFC_DLL@DV?$ChTraitsCRT@D@ATL@@@@@ATL@@@Z$10 10020aad f   RemainFuture.obj
 0001:0001fab6       __unwindfunclet$?ParsingAllaccnData@CRemainFuture@@QAEXV?$CStringT@DV?$StrTraitMFC_DLL@DV?$ChTraitsCRT@D@ATL@@@@@ATL@@@Z$12 10020ab6 f   RemainFuture.obj
 0001:0001fabf       __unwindfunclet$?ParsingAllaccnData@CRemainFuture@@QAEXV?$CStringT@DV?$StrTraitMFC_DLL@DV?$ChTraitsCRT@D@ATL@@@@@ATL@@@Z$14 10020abf f   RemainFuture.obj
 0001:0001fac8       __unwindfunclet$?ParsingAllaccnData@CRemainFuture@@QAEXV?$CStringT@DV?$StrTraitMFC_DLL@DV?$ChTraitsCRT@D@ATL@@@@@ATL@@@Z$16 10020ac8 f   RemainFuture.obj
 0001:0001fad1       __unwindfunclet$?ParsingAllaccnData@CRemainFuture@@QAEXV?$CStringT@DV?$StrTraitMFC_DLL@DV?$ChTraitsCRT@D@ATL@@@@@ATL@@@Z$18 10020ad1 f   RemainFuture.obj
 0001:0001fada       __unwindfunclet$?ParsingAllaccnData@CRemainFuture@@QAEXV?$CStringT@DV?$StrTraitMFC_DLL@DV?$ChTraitsCRT@D@ATL@@@@@ATL@@@Z$20 10020ada f   RemainFuture.obj
 0001:0001fae6       __unwindfunclet$?ParsingAllaccnData@CRemainFuture@@QAEXV?$CStringT@DV?$StrTraitMFC_DLL@DV?$ChTraitsCRT@D@ATL@@@@@ATL@@@Z$22 10020ae6 f   RemainFuture.obj
 0001:0001faf2       __unwindfunclet$?ParsingAllaccnData@CRemainFuture@@QAEXV?$CStringT@DV?$StrTraitMFC_DLL@DV?$ChTraitsCRT@D@ATL@@@@@ATL@@@Z$24 10020af2 f   RemainFuture.obj
 0001:0001fb03       __ehhandler$?ParsingAllaccnData@CRemainFuture@@QAEXV?$CStringT@DV?$StrTraitMFC_DLL@DV?$ChTraitsCRT@D@ATL@@@@@ATL@@@Z 10020b03 f   RemainFuture.obj
 0001:0001fb23       __unwindfunclet$?CalRemainData@CRemainFuture@@QAEHAAVCMapStringToString@@V?$CStringT@DV?$StrTraitMFC_DLL@DV?$ChTraitsCRT@D@ATL@@@@@ATL@@_N@Z$0 10020b23 f   RemainFuture.obj
 0001:0001fb2c       __unwindfunclet$?CalRemainData@CRemainFuture@@QAEHAAVCMapStringToString@@V?$CStringT@DV?$StrTraitMFC_DLL@DV?$ChTraitsCRT@D@ATL@@@@@ATL@@_N@Z$1 10020b2c f   RemainFuture.obj
 0001:0001fb35       __unwindfunclet$?CalRemainData@CRemainFuture@@QAEHAAVCMapStringToString@@V?$CStringT@DV?$StrTraitMFC_DLL@DV?$ChTraitsCRT@D@ATL@@@@@ATL@@_N@Z$2 10020b35 f   RemainFuture.obj
 0001:0001fb3e       __unwindfunclet$?CalRemainData@CRemainFuture@@QAEHAAVCMapStringToString@@V?$CStringT@DV?$StrTraitMFC_DLL@DV?$ChTraitsCRT@D@ATL@@@@@ATL@@_N@Z$3 10020b3e f   RemainFuture.obj
 0001:0001fb47       __unwindfunclet$?CalRemainData@CRemainFuture@@QAEHAAVCMapStringToString@@V?$CStringT@DV?$StrTraitMFC_DLL@DV?$ChTraitsCRT@D@ATL@@@@@ATL@@_N@Z$4 10020b47 f   RemainFuture.obj
 0001:0001fb50       __unwindfunclet$?CalRemainData@CRemainFuture@@QAEHAAVCMapStringToString@@V?$CStringT@DV?$StrTraitMFC_DLL@DV?$ChTraitsCRT@D@ATL@@@@@ATL@@_N@Z$5 10020b50 f   RemainFuture.obj
 0001:0001fb59       __unwindfunclet$?CalRemainData@CRemainFuture@@QAEHAAVCMapStringToString@@V?$CStringT@DV?$StrTraitMFC_DLL@DV?$ChTraitsCRT@D@ATL@@@@@ATL@@_N@Z$6 10020b59 f   RemainFuture.obj
 0001:0001fb62       __unwindfunclet$?CalRemainData@CRemainFuture@@QAEHAAVCMapStringToString@@V?$CStringT@DV?$StrTraitMFC_DLL@DV?$ChTraitsCRT@D@ATL@@@@@ATL@@_N@Z$7 10020b62 f   RemainFuture.obj
 0001:0001fb6b       __unwindfunclet$?CalRemainData@CRemainFuture@@QAEHAAVCMapStringToString@@V?$CStringT@DV?$StrTraitMFC_DLL@DV?$ChTraitsCRT@D@ATL@@@@@ATL@@_N@Z$9 10020b6b f   RemainFuture.obj
 0001:0001fb77       __unwindfunclet$?CalRemainData@CRemainFuture@@QAEHAAVCMapStringToString@@V?$CStringT@DV?$StrTraitMFC_DLL@DV?$ChTraitsCRT@D@ATL@@@@@ATL@@_N@Z$15 10020b77 f   RemainFuture.obj
 0001:0001fb88       __ehhandler$?CalRemainData@CRemainFuture@@QAEHAAVCMapStringToString@@V?$CStringT@DV?$StrTraitMFC_DLL@DV?$ChTraitsCRT@D@ATL@@@@@ATL@@_N@Z 10020b88 f   RemainFuture.obj
 0001:0001fba8       __unwindfunclet$?CalPgsonik@CRemainFuture@@QAEXXZ$2 10020ba8 f   RemainFuture.obj
 0001:0001fbb1       __unwindfunclet$?CalPgsonik@CRemainFuture@@QAEXXZ$4 10020bb1 f   RemainFuture.obj
 0001:0001fbba       __unwindfunclet$?CalPgsonik@CRemainFuture@@QAEXXZ$9 10020bba f   RemainFuture.obj
 0001:0001fbc3       __unwindfunclet$?CalPgsonik@CRemainFuture@@QAEXXZ$10 10020bc3 f   RemainFuture.obj
 0001:0001fbcc       __unwindfunclet$?CalPgsonik@CRemainFuture@@QAEXXZ$12 10020bcc f   RemainFuture.obj
 0001:0001fbd8       __unwindfunclet$?CalPgsonik@CRemainFuture@@QAEXXZ$17 10020bd8 f   RemainFuture.obj
 0001:0001fbe9       __ehhandler$?CalPgsonik@CRemainFuture@@QAEXXZ 10020be9 f   RemainFuture.obj
 0001:0001fc09       __unwindfunclet$?CalPgsonik@CRemainFuture@@QAE_NV?$CStringT@DV?$StrTraitMFC_DLL@DV?$ChTraitsCRT@D@ATL@@@@@ATL@@00@Z$0 10020c09 f   RemainFuture.obj
 0001:0001fc12       __unwindfunclet$?CalPgsonik@CRemainFuture@@QAE_NV?$CStringT@DV?$StrTraitMFC_DLL@DV?$ChTraitsCRT@D@ATL@@@@@ATL@@00@Z$1 10020c12 f   RemainFuture.obj
 0001:0001fc1b       __unwindfunclet$?CalPgsonik@CRemainFuture@@QAE_NV?$CStringT@DV?$StrTraitMFC_DLL@DV?$ChTraitsCRT@D@ATL@@@@@ATL@@00@Z$2 10020c1b f   RemainFuture.obj
 0001:0001fc24       __unwindfunclet$?CalPgsonik@CRemainFuture@@QAE_NV?$CStringT@DV?$StrTraitMFC_DLL@DV?$ChTraitsCRT@D@ATL@@@@@ATL@@00@Z$4 10020c24 f   RemainFuture.obj
 0001:0001fc32       __ehhandler$?CalPgsonik@CRemainFuture@@QAE_NV?$CStringT@DV?$StrTraitMFC_DLL@DV?$ChTraitsCRT@D@ATL@@@@@ATL@@00@Z 10020c32 f   RemainFuture.obj
 0001:0001fc4f       __unwindfunclet$?SetNoCont@CRemainFuture@@QAEXV?$CStringT@DV?$StrTraitMFC_DLL@DV?$ChTraitsCRT@D@ATL@@@@@ATL@@H@Z$0 10020c4f f   RemainFuture.obj
 0001:0001fc58       __unwindfunclet$?SetNoCont@CRemainFuture@@QAEXV?$CStringT@DV?$StrTraitMFC_DLL@DV?$ChTraitsCRT@D@ATL@@@@@ATL@@H@Z$1 10020c58 f   RemainFuture.obj
 0001:0001fc66       __ehhandler$?SetNoCont@CRemainFuture@@QAEXV?$CStringT@DV?$StrTraitMFC_DLL@DV?$ChTraitsCRT@D@ATL@@@@@ATL@@H@Z 10020c66 f   RemainFuture.obj
 0001:0001fc83       __unwindfunclet$?GetBaseValue@CRemainFuture@@QAENV?$CStringT@DV?$StrTraitMFC_DLL@DV?$ChTraitsCRT@D@ATL@@@@@ATL@@@Z$0 10020c83 f   RemainFuture.obj
 0001:0001fc8c       __unwindfunclet$?GetBaseValue@CRemainFuture@@QAENV?$CStringT@DV?$StrTraitMFC_DLL@DV?$ChTraitsCRT@D@ATL@@@@@ATL@@@Z$1 10020c8c f   RemainFuture.obj
 0001:0001fc98       __unwindfunclet$?GetBaseValue@CRemainFuture@@QAENV?$CStringT@DV?$StrTraitMFC_DLL@DV?$ChTraitsCRT@D@ATL@@@@@ATL@@@Z$2 10020c98 f   RemainFuture.obj
 0001:0001fca4       __unwindfunclet$?GetBaseValue@CRemainFuture@@QAENV?$CStringT@DV?$StrTraitMFC_DLL@DV?$ChTraitsCRT@D@ATL@@@@@ATL@@@Z$3 10020ca4 f   RemainFuture.obj
 0001:0001fcb0       __unwindfunclet$?GetBaseValue@CRemainFuture@@QAENV?$CStringT@DV?$StrTraitMFC_DLL@DV?$ChTraitsCRT@D@ATL@@@@@ATL@@@Z$4 10020cb0 f   RemainFuture.obj
 0001:0001fcbc       __unwindfunclet$?GetBaseValue@CRemainFuture@@QAENV?$CStringT@DV?$StrTraitMFC_DLL@DV?$ChTraitsCRT@D@ATL@@@@@ATL@@@Z$5 10020cbc f   RemainFuture.obj
 0001:0001fcc8       __unwindfunclet$?GetBaseValue@CRemainFuture@@QAENV?$CStringT@DV?$StrTraitMFC_DLL@DV?$ChTraitsCRT@D@ATL@@@@@ATL@@@Z$6 10020cc8 f   RemainFuture.obj
 0001:0001fcd4       __unwindfunclet$?GetBaseValue@CRemainFuture@@QAENV?$CStringT@DV?$StrTraitMFC_DLL@DV?$ChTraitsCRT@D@ATL@@@@@ATL@@@Z$7 10020cd4 f   RemainFuture.obj
 0001:0001fce0       __unwindfunclet$?GetBaseValue@CRemainFuture@@QAENV?$CStringT@DV?$StrTraitMFC_DLL@DV?$ChTraitsCRT@D@ATL@@@@@ATL@@@Z$8 10020ce0 f   RemainFuture.obj
 0001:0001fceb       __unwindfunclet$?GetBaseValue@CRemainFuture@@QAENV?$CStringT@DV?$StrTraitMFC_DLL@DV?$ChTraitsCRT@D@ATL@@@@@ATL@@@Z$9 10020ceb f   RemainFuture.obj
 0001:0001fcf7       __unwindfunclet$?GetBaseValue@CRemainFuture@@QAENV?$CStringT@DV?$StrTraitMFC_DLL@DV?$ChTraitsCRT@D@ATL@@@@@ATL@@@Z$10 10020cf7 f   RemainFuture.obj
 0001:0001fd03       __unwindfunclet$?GetBaseValue@CRemainFuture@@QAENV?$CStringT@DV?$StrTraitMFC_DLL@DV?$ChTraitsCRT@D@ATL@@@@@ATL@@@Z$11 10020d03 f   RemainFuture.obj
 0001:0001fd0f       __unwindfunclet$?GetBaseValue@CRemainFuture@@QAENV?$CStringT@DV?$StrTraitMFC_DLL@DV?$ChTraitsCRT@D@ATL@@@@@ATL@@@Z$12 10020d0f f   RemainFuture.obj
 0001:0001fd1b       __unwindfunclet$?GetBaseValue@CRemainFuture@@QAENV?$CStringT@DV?$StrTraitMFC_DLL@DV?$ChTraitsCRT@D@ATL@@@@@ATL@@@Z$13 10020d1b f   RemainFuture.obj
 0001:0001fd2c       __ehhandler$?GetBaseValue@CRemainFuture@@QAENV?$CStringT@DV?$StrTraitMFC_DLL@DV?$ChTraitsCRT@D@ATL@@@@@ATL@@@Z 10020d2c f   RemainFuture.obj
 0001:0001fd56       __unwindfunclet$?getNoCont@CRemainFuture@@AAEHV?$CStringT@DV?$StrTraitMFC_DLL@DV?$ChTraitsCRT@D@ATL@@@@@ATL@@@Z$0 10020d56 f   RemainFuture.obj
 0001:0001fd5f       __unwindfunclet$?getNoCont@CRemainFuture@@AAEHV?$CStringT@DV?$StrTraitMFC_DLL@DV?$ChTraitsCRT@D@ATL@@@@@ATL@@@Z$1 10020d5f f   RemainFuture.obj
 0001:0001fd6d       __ehhandler$?getNoCont@CRemainFuture@@AAEHV?$CStringT@DV?$StrTraitMFC_DLL@DV?$ChTraitsCRT@D@ATL@@@@@ATL@@@Z 10020d6d f   RemainFuture.obj
 0001:0001fd8a       __unwindfunclet$?parsingNcont@CRemainFuture@@AAEXV?$CStringT@DV?$StrTraitMFC_DLL@DV?$ChTraitsCRT@D@ATL@@@@@ATL@@0H@Z$0 10020d8a f   RemainFuture.obj
 0001:0001fd93       __unwindfunclet$?parsingNcont@CRemainFuture@@AAEXV?$CStringT@DV?$StrTraitMFC_DLL@DV?$ChTraitsCRT@D@ATL@@@@@ATL@@0H@Z$1 10020d93 f   RemainFuture.obj
 0001:0001fd9c       __unwindfunclet$?parsingNcont@CRemainFuture@@AAEXV?$CStringT@DV?$StrTraitMFC_DLL@DV?$ChTraitsCRT@D@ATL@@@@@ATL@@0H@Z$2 10020d9c f   RemainFuture.obj
 0001:0001fdaa       __ehhandler$?parsingNcont@CRemainFuture@@AAEXV?$CStringT@DV?$StrTraitMFC_DLL@DV?$ChTraitsCRT@D@ATL@@@@@ATL@@0H@Z 10020daa f   RemainFuture.obj
 0001:0001fdc7       __unwindfunclet$?getBase@CRemainFuture@@AAEXXZ$0 10020dc7 f   RemainFuture.obj
 0001:0001fdd0       __unwindfunclet$?getBase@CRemainFuture@@AAEXXZ$2 10020dd0 f   RemainFuture.obj
 0001:0001fdde       __ehhandler$?getBase@CRemainFuture@@AAEXXZ 10020dde f   RemainFuture.obj
 0001:0001fdfb       __unwindfunclet$?getFormatData@CRemainFuture@@AAE?AV?$CStringT@DV?$StrTraitMFC_DLL@DV?$ChTraitsCRT@D@ATL@@@@@ATL@@V23@@Z$0 10020dfb f   RemainFuture.obj
 0001:0001fe04       __unwindfunclet$?getFormatData@CRemainFuture@@AAE?AV?$CStringT@DV?$StrTraitMFC_DLL@DV?$ChTraitsCRT@D@ATL@@@@@ATL@@V23@@Z$1 10020e04 f   RemainFuture.obj
 0001:0001fe0d       __unwindfunclet$?getFormatData@CRemainFuture@@AAE?AV?$CStringT@DV?$StrTraitMFC_DLL@DV?$ChTraitsCRT@D@ATL@@@@@ATL@@V23@@Z$2 10020e0d f   RemainFuture.obj
 0001:0001fe1b       __ehhandler$?getFormatData@CRemainFuture@@AAE?AV?$CStringT@DV?$StrTraitMFC_DLL@DV?$ChTraitsCRT@D@ATL@@@@@ATL@@V23@@Z 10020e1b f   RemainFuture.obj
 0001:0001fe38       __unwindfunclet$?getJKind@CRemainFuture@@AAEHV?$CStringT@DV?$StrTraitMFC_DLL@DV?$ChTraitsCRT@D@ATL@@@@@ATL@@@Z$0 10020e38 f   RemainFuture.obj
 0001:0001fe46       __ehhandler$?getJKind@CRemainFuture@@AAEHV?$CStringT@DV?$StrTraitMFC_DLL@DV?$ChTraitsCRT@D@ATL@@@@@ATL@@@Z 10020e46 f   RemainFuture.obj
 0001:0001fe63       __unwindfunclet$?parser@CRemainFuture@@AAE?AV?$CStringT@DV?$StrTraitMFC_DLL@DV?$ChTraitsCRT@D@ATL@@@@@ATL@@AAV23@V23@@Z$0 10020e63 f   RemainFuture.obj
 0001:0001fe6c       __unwindfunclet$?parser@CRemainFuture@@AAE?AV?$CStringT@DV?$StrTraitMFC_DLL@DV?$ChTraitsCRT@D@ATL@@@@@ATL@@AAV23@V23@@Z$1 10020e6c f   RemainFuture.obj
 0001:0001fe75       __unwindfunclet$?parser@CRemainFuture@@AAE?AV?$CStringT@DV?$StrTraitMFC_DLL@DV?$ChTraitsCRT@D@ATL@@@@@ATL@@AAV23@V23@@Z$3 10020e75 f   RemainFuture.obj
 0001:0001fe7e       __unwindfunclet$?parser@CRemainFuture@@AAE?AV?$CStringT@DV?$StrTraitMFC_DLL@DV?$ChTraitsCRT@D@ATL@@@@@ATL@@AAV23@V23@@Z$4 10020e7e f   RemainFuture.obj
 0001:0001fe8c       __ehhandler$?parser@CRemainFuture@@AAE?AV?$CStringT@DV?$StrTraitMFC_DLL@DV?$ChTraitsCRT@D@ATL@@@@@ATL@@AAV23@V23@@Z 10020e8c f   RemainFuture.obj
 0001:0001fea9       __unwindfunclet$?getString@CRemainFuture@@AAE?AV?$CStringT@DV?$StrTraitMFC_DLL@DV?$ChTraitsCRT@D@ATL@@@@@ATL@@PADH@Z$0 10020ea9 f   RemainFuture.obj
 0001:0001feb7       __ehhandler$?getString@CRemainFuture@@AAE?AV?$CStringT@DV?$StrTraitMFC_DLL@DV?$ChTraitsCRT@D@ATL@@@@@ATL@@PADH@Z 10020eb7 f   RemainFuture.obj
 0001:0001fed4       __unwindfunclet$?testSaveFile@CRemainFuture@@QAEXV?$CStringT@DV?$StrTraitMFC_DLL@DV?$ChTraitsCRT@D@ATL@@@@@ATL@@_N@Z$0 10020ed4 f   RemainFuture.obj
 0001:0001fedd       __unwindfunclet$?testSaveFile@CRemainFuture@@QAEXV?$CStringT@DV?$StrTraitMFC_DLL@DV?$ChTraitsCRT@D@ATL@@@@@ATL@@_N@Z$1 10020edd f   RemainFuture.obj
 0001:0001fee6       __unwindfunclet$?testSaveFile@CRemainFuture@@QAEXV?$CStringT@DV?$StrTraitMFC_DLL@DV?$ChTraitsCRT@D@ATL@@@@@ATL@@_N@Z$2 10020ee6 f   RemainFuture.obj
 0001:0001feef       __unwindfunclet$?testSaveFile@CRemainFuture@@QAEXV?$CStringT@DV?$StrTraitMFC_DLL@DV?$ChTraitsCRT@D@ATL@@@@@ATL@@_N@Z$3 10020eef f   RemainFuture.obj
 0001:0001fef8       __unwindfunclet$?testSaveFile@CRemainFuture@@QAEXV?$CStringT@DV?$StrTraitMFC_DLL@DV?$ChTraitsCRT@D@ATL@@@@@ATL@@_N@Z$4 10020ef8 f   RemainFuture.obj
 0001:0001ff01       __unwindfunclet$?testSaveFile@CRemainFuture@@QAEXV?$CStringT@DV?$StrTraitMFC_DLL@DV?$ChTraitsCRT@D@ATL@@@@@ATL@@_N@Z$5 10020f01 f   RemainFuture.obj
 0001:0001ff0a       __unwindfunclet$?testSaveFile@CRemainFuture@@QAEXV?$CStringT@DV?$StrTraitMFC_DLL@DV?$ChTraitsCRT@D@ATL@@@@@ATL@@_N@Z$6 10020f0a f   RemainFuture.obj
 0001:0001ff13       __unwindfunclet$?testSaveFile@CRemainFuture@@QAEXV?$CStringT@DV?$StrTraitMFC_DLL@DV?$ChTraitsCRT@D@ATL@@@@@ATL@@_N@Z$7 10020f13 f   RemainFuture.obj
 0001:0001ff20       __ehhandler$?testSaveFile@CRemainFuture@@QAEXV?$CStringT@DV?$StrTraitMFC_DLL@DV?$ChTraitsCRT@D@ATL@@@@@ATL@@_N@Z 10020f20 f   RemainFuture.obj
 0001:0001ff50       __unwindfunclet$?SendTrigger@CShMemory@@QAEXV?$CStringT@DV?$StrTraitMFC_DLL@DV?$ChTraitsCRT@D@ATL@@@@@ATL@@PAUHWND__@@@Z$0 10020f50 f   ShMemory.obj
 0001:0001ff59       __unwindfunclet$?SendTrigger@CShMemory@@QAEXV?$CStringT@DV?$StrTraitMFC_DLL@DV?$ChTraitsCRT@D@ATL@@@@@ATL@@PAUHWND__@@@Z$1 10020f59 f   ShMemory.obj
 0001:0001ff67       __ehhandler$?SendTrigger@CShMemory@@QAEXV?$CStringT@DV?$StrTraitMFC_DLL@DV?$ChTraitsCRT@D@ATL@@@@@ATL@@PAUHWND__@@@Z 10020f67 f   ShMemory.obj
 0001:0001ff90       __ehhandler$?Init@CComCriticalSection@ATL@@QAEJXZ 10020f90 f   StdAfx.obj
 0001:0001ffad       __unwindfunclet$?AfxWndProcDllStatic@@YGJPAUHWND__@@IIJ@Z$0 10020fad f   mfcs140:dllmodul.obj
 0001:0001ffba       __ehhandler$?AfxWndProcDllStatic@@YGJPAUHWND__@@IIJ@Z 10020fba f   mfcs140:dllmodul.obj
 0001:0001ffd7       __unwindfunclet$_InternalDllMain@12$5 10020fd7 f   mfcs140:dllmodul.obj
 0001:0001ffe0       __unwindfunclet$_InternalDllMain@12$6 10020fe0 f   mfcs140:dllmodul.obj
 0001:0001ffed       __ehhandler$_InternalDllMain@12 10020fed f   mfcs140:dllmodul.obj
 0001:00020010       ??__FtheApp@@YAXXZ         10021010 f   IBXXXX02.obj
 0001:0002001f       ??__FafxModuleState@@YAXXZ 1002101f f   mfcs140:dllmodul.obj
 0001:00020029       ??__F_AtlBaseModule@ATL@@YAXXZ 10021029 f   atls:atlbase.obj
 0002:00000544       ?afxModuleState$initializer$@@3P6AXXZA 10022544     mfcs140:dllmodul.obj
 0002:00000548       ?_AtlBaseModule$initializer$@ATL@@3P6AXXZA 10022548     atls:atlbase.obj
 0002:0000054c       ?theApp$initializer$@@3P6AXXZA 1002254c     IBXXXX02.obj
 0002:00000558       ?__scrt_initialize_tss_var@@3P6AHXZA 10022558     msvcrt:thread_safe_statics.obj
 0002:00000694       ?_messageEntries@?1??GetThisMessageMap@CIBXXXX02App@@KGPBUAFX_MSGMAP@@XZ@4QBUAFX_MSGMAP_ENTRY@@B 10022694     IBXXXX02.obj
 0002:000006ac       ?messageMap@?1??GetThisMessageMap@CIBXXXX02App@@KGPBUAFX_MSGMAP@@XZ@4U3@B 100226ac     IBXXXX02.obj
 0002:000006b8       $SG402379                  100226b8     MapWnd.obj
 0002:000006b9       $SG402607                  100226b9     MapWnd.obj
 0002:000006ba       $SG403502                  100226ba     MapWnd.obj
 0002:000006bb       $SG403660                  100226bb     MapWnd.obj
 0002:000006bc       $SG402442                  100226bc     MapWnd.obj
 0002:000006c2       $SG403661                  100226c2     MapWnd.obj
 0002:000006c3       $SG403664                  100226c3     MapWnd.obj
 0002:000006c4       $SG403659                  100226c4     MapWnd.obj
 0002:000006c6       $SG403665                  100226c6     MapWnd.obj
 0002:000006c7       $SG403673                  100226c7     MapWnd.obj
 0002:000006c8       $SG403662                  100226c8     MapWnd.obj
 0002:000006cc       $SG403674                  100226cc     MapWnd.obj
 0002:000006d1       $SG403679                  100226d1     MapWnd.obj
 0002:000006d2       $SG403682                  100226d2     MapWnd.obj
 0002:000006d3       $SG403774                  100226d3     MapWnd.obj
 0002:000006d4       $SG403675                  100226d4     MapWnd.obj
 0002:000006d9       $SG403775                  100226d9     MapWnd.obj
 0002:000006da       $SG403776                  100226da     MapWnd.obj
 0002:000006db       $SG403777                  100226db     MapWnd.obj
 0002:000006dc       $SG403676                  100226dc     MapWnd.obj
 0002:000006e3       $SG404087                  100226e3     MapWnd.obj
 0002:000006e4       $SG403678                  100226e4     MapWnd.obj
 0002:000006e7       $SG404171                  100226e7     MapWnd.obj
 0002:000006e8       $SG403683                  100226e8     MapWnd.obj
 0002:000006eb       $SG404172                  100226eb     MapWnd.obj
 0002:000006ec       $SG403743                  100226ec     MapWnd.obj
 0002:000006ee       $SG404291                  100226ee     MapWnd.obj
 0002:000006ef       $SG404295                  100226ef     MapWnd.obj
 0002:000006f0       $SG403744                  100226f0     MapWnd.obj
 0002:000006f2       $SG404387                  100226f2     MapWnd.obj
 0002:000006f3       $SG404390                  100226f3     MapWnd.obj
 0002:000006f4       $SG403745                  100226f4     MapWnd.obj
 0002:000006f6       $SG404395                  100226f6     MapWnd.obj
 0002:000006f7       $SG404396                  100226f7     MapWnd.obj
 0002:000006f8       $SG403746                  100226f8     MapWnd.obj
 0002:000006fa       $SG404397                  100226fa     MapWnd.obj
 0002:000006fb       $SG404408                  100226fb     MapWnd.obj
 0002:000006fc       $SG403747                  100226fc     MapWnd.obj
 0002:000006fe       $SG404533                  100226fe     MapWnd.obj
 0002:000006ff       $SG404536                  100226ff     MapWnd.obj
 0002:00000700       $SG403748                  10022700     MapWnd.obj
 0002:00000702       $SG404580                  10022702     MapWnd.obj
 0002:00000703       $SG404581                  10022703     MapWnd.obj
 0002:00000704       $SG403749                  10022704     MapWnd.obj
 0002:00000706       $SG404582                  10022706     MapWnd.obj
 0002:00000707       $SG404641                  10022707     MapWnd.obj
 0002:00000708       $SG403750                  10022708     MapWnd.obj
 0002:0000070a       $SG404642                  1002270a     MapWnd.obj
 0002:0000070b       $SG404655                  1002270b     MapWnd.obj
 0002:0000070c       $SG403751                  1002270c     MapWnd.obj
 0002:0000070e       $SG404656                  1002270e     MapWnd.obj
 0002:0000070f       $SG404657                  1002270f     MapWnd.obj
 0002:00000710       $SG403752                  10022710     MapWnd.obj
 0002:00000712       $SG404734                  10022712     MapWnd.obj
 0002:00000713       $SG404735                  10022713     MapWnd.obj
 0002:00000714       $SG403753                  10022714     MapWnd.obj
 0002:00000716       $SG404736                  10022716     MapWnd.obj
 0002:00000717       $SG404742                  10022717     MapWnd.obj
 0002:00000718       $SG403754                  10022718     MapWnd.obj
 0002:00000720       $SG403755                  10022720     MapWnd.obj
 0002:00000729       $SG404744                  10022729     MapWnd.obj
 0002:0000072a       $SG404760                  1002272a     MapWnd.obj
 0002:0000072b       $SG404761                  1002272b     MapWnd.obj
 0002:0000072c       $SG403756                  1002272c     MapWnd.obj
 0002:00000735       $SG404762                  10022735     MapWnd.obj
 0002:00000736       $SG404924                  10022736     MapWnd.obj
 0002:00000737       $SG404925                  10022737     MapWnd.obj
 0002:00000738       $SG403757                  10022738     MapWnd.obj
 0002:00000746       $SG404926                  10022746     MapWnd.obj
 0002:00000747       $SG404927                  10022747     MapWnd.obj
 0002:00000748       $SG404080                  10022748     MapWnd.obj
 0002:0000074a       $SG404928                  1002274a     MapWnd.obj
 0002:0000074b       $SG404929                  1002274b     MapWnd.obj
 0002:0000074c       $SG404081                  1002274c     MapWnd.obj
 0002:0000074e       $SG404930                  1002274e     MapWnd.obj
 0002:0000074f       $SG404931                  1002274f     MapWnd.obj
 0002:00000750       $SG404082                  10022750     MapWnd.obj
 0002:00000752       $SG404932                  10022752     MapWnd.obj
 0002:00000753       $SG404933                  10022753     MapWnd.obj
 0002:00000754       $SG404083                  10022754     MapWnd.obj
 0002:00000756       $SG404955                  10022756     MapWnd.obj
 0002:00000757       $SG404958                  10022757     MapWnd.obj
 0002:00000758       $SG404084                  10022758     MapWnd.obj
 0002:0000075a       $SG404961                  1002275a     MapWnd.obj
 0002:0000075b       $SG404965                  1002275b     MapWnd.obj
 0002:0000075c       $SG404085                  1002275c     MapWnd.obj
 0002:0000075e       $SG404970                  1002275e     MapWnd.obj
 0002:0000075f       $SG404971                  1002275f     MapWnd.obj
 0002:00000760       $SG404175                  10022760     MapWnd.obj
 0002:00000769       $SG404972                  10022769     MapWnd.obj
 0002:0000076a       $SG404998                  1002276a     MapWnd.obj
 0002:0000076b       $SG404999                  1002276b     MapWnd.obj
 0002:0000076c       $SG404176                  1002276c     MapWnd.obj
 0002:0000076e       $SG405027                  1002276e     MapWnd.obj
 0002:0000076f       $SG405028                  1002276f     MapWnd.obj
 0002:00000770       $SG404177                  10022770     MapWnd.obj
 0002:00000772       $SG405034                  10022772     MapWnd.obj
 0002:00000773       $SG405035                  10022773     MapWnd.obj
 0002:00000774       $SG404178                  10022774     MapWnd.obj
 0002:00000787       $SG405038                  10022787     MapWnd.obj
 0002:00000788       $SG404179                  10022788     MapWnd.obj
 0002:0000079e       $SG405051                  1002279e     MapWnd.obj
 0002:0000079f       $SG405052                  1002279f     MapWnd.obj
 0002:000007a0       $SG404275                  100227a0     MapWnd.obj
 0002:000007a3       $SG405098                  100227a3     MapWnd.obj
 0002:000007a4       $SG404278                  100227a4     MapWnd.obj
 0002:000007cd       $SG405116                  100227cd     MapWnd.obj
 0002:000007ce       $SG405142                  100227ce     MapWnd.obj
 0002:000007cf       $SG405143                  100227cf     MapWnd.obj
 0002:000007d0       $SG404282                  100227d0     MapWnd.obj
 0002:000007d3       $SG405194                  100227d3     MapWnd.obj
 0002:000007d4       $SG404283                  100227d4     MapWnd.obj
 0002:000007d7       $SG405360                  100227d7     MapWnd.obj
 0002:000007d8       $SG404284                  100227d8     MapWnd.obj
 0002:00000801       $SG405361                  10022801     MapWnd.obj
 0002:00000802       $SG405362                  10022802     MapWnd.obj
 0002:00000803       $SG405363                  10022803     MapWnd.obj
 0002:00000804       $SG404285                  10022804     MapWnd.obj
 0002:00000806       $SG405364                  10022806     MapWnd.obj
 0002:00000807       $SG405365                  10022807     MapWnd.obj
 0002:00000808       $SG404286                  10022808     MapWnd.obj
 0002:0000080a       $SG405366                  1002280a     MapWnd.obj
 0002:0000080b       $SG405367                  1002280b     MapWnd.obj
 0002:0000080c       $SG404287                  1002280c     MapWnd.obj
 0002:00000815       $SG405368                  10022815     MapWnd.obj
 0002:00000816       $SG405369                  10022816     MapWnd.obj
 0002:00000817       $SG405370                  10022817     MapWnd.obj
 0002:00000818       $SG404288                  10022818     MapWnd.obj
 0002:00000821       $SG405371                  10022821     MapWnd.obj
 0002:00000822       $SG405372                  10022822     MapWnd.obj
 0002:00000823       $SG405373                  10022823     MapWnd.obj
 0002:00000824       $SG404289                  10022824     MapWnd.obj
 0002:00000829       $SG405374                  10022829     MapWnd.obj
 0002:0000082a       $SG405375                  1002282a     MapWnd.obj
 0002:0000082b       $SG405376                  1002282b     MapWnd.obj
 0002:0000082c       $SG404290                  1002282c     MapWnd.obj
 0002:00000832       $SG405377                  10022832     MapWnd.obj
 0002:00000833       $SG405378                  10022833     MapWnd.obj
 0002:00000834       $SG404292                  10022834     MapWnd.obj
 0002:00000837       $SG405379                  10022837     MapWnd.obj
 0002:00000838       $SG404296                  10022838     MapWnd.obj
 0002:00000841       $SG405380                  10022841     MapWnd.obj
 0002:00000842       $SG405560                  10022842     MapWnd.obj
 0002:00000843       $SG405606                  10022843     MapWnd.obj
 0002:00000844       $SG404300                  10022844     MapWnd.obj
 0002:0000084d       $SG405613                  1002284d     MapWnd.obj
 0002:0000084e       $SG405620                  1002284e     MapWnd.obj
 0002:0000084f       $SG405639                  1002284f     MapWnd.obj
 0002:00000850       $SG404388                  10022850     MapWnd.obj
 0002:00000854       $SG404399                  10022854     MapWnd.obj
 0002:00000880       $SG404448                  10022880     MapWnd.obj
 0002:00000884       $SG404450                  10022884     MapWnd.obj
 0002:00000888       $SG404462                  10022888     MapWnd.obj
 0002:00000890       $SG404532                  10022890     MapWnd.obj
 0002:00000894       $SG404534                  10022894     MapWnd.obj
 0002:0000089c       $SG404535                  1002289c     MapWnd.obj
 0002:000008a0       $SG404537                  100228a0     MapWnd.obj
 0002:000008a8       $SG404538                  100228a8     MapWnd.obj
 0002:000008b0       $SG404539                  100228b0     MapWnd.obj
 0002:000008b4       $SG404540                  100228b4     MapWnd.obj
 0002:000008b8       $SG404541                  100228b8     MapWnd.obj
 0002:000008c4       $SG404649                  100228c4     MapWnd.obj
 0002:000008cc       $SG404650                  100228cc     MapWnd.obj
 0002:000008d0       $SG404660                  100228d0     MapWnd.obj
 0002:000008d4       $SG404665                  100228d4     MapWnd.obj
 0002:000008d8       $SG404661                  100228d8     MapWnd.obj
 0002:00000930       $SG404733                  10022930     MapWnd.obj
 0002:00000934       $SG404739                  10022934     MapWnd.obj
 0002:00000938       $SG404740                  10022938     MapWnd.obj
 0002:0000093c       $SG404746                  1002293c     MapWnd.obj
 0002:00000940       $SG404747                  10022940     MapWnd.obj
 0002:00000944       $SG404750                  10022944     MapWnd.obj
 0002:00000948       $SG404751                  10022948     MapWnd.obj
 0002:0000094c       $SG404752                  1002294c     MapWnd.obj
 0002:00000950       $SG404754                  10022950     MapWnd.obj
 0002:00000958       $SG404755                  10022958     MapWnd.obj
 0002:0000095c       $SG404765                  1002295c     MapWnd.obj
 0002:00000960       $SG404766                  10022960     MapWnd.obj
 0002:000009b8       $SG404770                  100229b8     MapWnd.obj
 0002:000009bc       $SG404788                  100229bc     MapWnd.obj
 0002:000009c0       $SG404923                  100229c0     MapWnd.obj
 0002:000009c4       $SG404934                  100229c4     MapWnd.obj
 0002:000009c8       $SG404936                  100229c8     MapWnd.obj
 0002:000009cc       $SG404938                  100229cc     MapWnd.obj
 0002:000009d0       $SG404939                  100229d0     MapWnd.obj
 0002:000009d4       $SG404940                  100229d4     MapWnd.obj
 0002:000009d8       $SG404941                  100229d8     MapWnd.obj
 0002:000009dc       $SG404942                  100229dc     MapWnd.obj
 0002:000009e0       $SG404943                  100229e0     MapWnd.obj
 0002:000009e4       $SG404944                  100229e4     MapWnd.obj
 0002:000009e8       $SG404945                  100229e8     MapWnd.obj
 0002:000009ec       $SG404946                  100229ec     MapWnd.obj
 0002:000009f4       $SG404947                  100229f4     MapWnd.obj
 0002:000009fc       $SG404948                  100229fc     MapWnd.obj
 0002:00000a00       $SG404949                  10022a00     MapWnd.obj
 0002:00000a04       $SG404950                  10022a04     MapWnd.obj
 0002:00000a08       $SG404953                  10022a08     MapWnd.obj
 0002:00000a0c       $SG404967                  10022a0c     MapWnd.obj
 0002:00000a10       $SG404968                  10022a10     MapWnd.obj
 0002:00000a14       $SG404986                  10022a14     MapWnd.obj
 0002:00000a18       $SG404977                  10022a18     MapWnd.obj
 0002:00000a7c       $SG404989                  10022a7c     MapWnd.obj
 0002:00000a80       $SG404991                  10022a80     MapWnd.obj
 0002:00000a84       $SG404996                  10022a84     MapWnd.obj
 0002:00000a88       $SG404997                  10022a88     MapWnd.obj
 0002:00000a8c       $SG405000                  10022a8c     MapWnd.obj
 0002:00000a90       $SG405001                  10022a90     MapWnd.obj
 0002:00000a94       $SG405003                  10022a94     MapWnd.obj
 0002:00000a98       $SG405004                  10022a98     MapWnd.obj
 0002:00000aa0       $SG405005                  10022aa0     MapWnd.obj
 0002:00000aa4       $SG405009                  10022aa4     MapWnd.obj
 0002:00000aa8       $SG405022                  10022aa8     MapWnd.obj
 0002:00000aac       $SG405025                  10022aac     MapWnd.obj
 0002:00000ab0       $SG405029                  10022ab0     MapWnd.obj
 0002:00000ab4       $SG405031                  10022ab4     MapWnd.obj
 0002:00000ab8       $SG405032                  10022ab8     MapWnd.obj
 0002:00000abc       $SG405033                  10022abc     MapWnd.obj
 0002:00000ac0       $SG405036                  10022ac0     MapWnd.obj
 0002:00000ac4       $SG405053                  10022ac4     MapWnd.obj
 0002:00000ad0       $SG405054                  10022ad0     MapWnd.obj
 0002:00000ae0       $SG405055                  10022ae0     MapWnd.obj
 0002:00000ae8       $SG405056                  10022ae8     MapWnd.obj
 0002:00000af0       $SG405070                  10022af0     MapWnd.obj
 0002:00000b04       $SG405117                  10022b04     MapWnd.obj
 0002:00000b0c       $SG405152                  10022b0c     MapWnd.obj
 0002:00000b28       $SG405195                  10022b28     MapWnd.obj
 0002:00000b2c       $SG405200                  10022b2c     MapWnd.obj
 0002:00000b30       $SG405201                  10022b30     MapWnd.obj
 0002:00000b3c       $SG405202                  10022b3c     MapWnd.obj
 0002:00000b48       $SG405219                  10022b48     MapWnd.obj
 0002:00000b4c       $SG405224                  10022b4c     MapWnd.obj
 0002:00000b58       $SG405225                  10022b58     MapWnd.obj
 0002:00000bbc       $SG405242                  10022bbc     MapWnd.obj
 0002:00000bc0       $SG405247                  10022bc0     MapWnd.obj
 0002:00000bcc       $SG405261                  10022bcc     MapWnd.obj
 0002:00000bd0       $SG405248                  10022bd0     MapWnd.obj
 0002:00000c34       $SG405278                  10022c34     MapWnd.obj
 0002:00000c38       $SG405281                  10022c38     MapWnd.obj
 0002:00000c3c       $SG405359                  10022c3c     MapWnd.obj
 0002:00000c40       $SG405381                  10022c40     MapWnd.obj
 0002:00000c44       $SG405383                  10022c44     MapWnd.obj
 0002:00000c48       $SG405385                  10022c48     MapWnd.obj
 0002:00000c4c       $SG405386                  10022c4c     MapWnd.obj
 0002:00000c50       $SG405387                  10022c50     MapWnd.obj
 0002:00000c54       $SG405388                  10022c54     MapWnd.obj
 0002:00000c58       $SG405389                  10022c58     MapWnd.obj
 0002:00000c5c       $SG405390                  10022c5c     MapWnd.obj
 0002:00000c60       $SG405391                  10022c60     MapWnd.obj
 0002:00000c64       $SG405392                  10022c64     MapWnd.obj
 0002:00000c68       $SG405393                  10022c68     MapWnd.obj
 0002:00000c6c       $SG405394                  10022c6c     MapWnd.obj
 0002:00000c70       $SG405395                  10022c70     MapWnd.obj
 0002:00000c74       $SG405396                  10022c74     MapWnd.obj
 0002:00000c78       $SG405397                  10022c78     MapWnd.obj
 0002:00000c7c       $SG405398                  10022c7c     MapWnd.obj
 0002:00000c80       $SG405399                  10022c80     MapWnd.obj
 0002:00000c84       $SG405400                  10022c84     MapWnd.obj
 0002:00000c88       $SG405401                  10022c88     MapWnd.obj
 0002:00000c8c       $SG405402                  10022c8c     MapWnd.obj
 0002:00000c90       $SG405405                  10022c90     MapWnd.obj
 0002:00000c94       $SG405406                  10022c94     MapWnd.obj
 0002:00000c98       $SG405408                  10022c98     MapWnd.obj
 0002:00000c9c       $SG405410                  10022c9c     MapWnd.obj
 0002:00000ca0       $SG405412                  10022ca0     MapWnd.obj
 0002:00000ca4       $SG405415                  10022ca4     MapWnd.obj
 0002:00000ca8       $SG405416                  10022ca8     MapWnd.obj
 0002:00000cac       $SG405417                  10022cac     MapWnd.obj
 0002:00000cb0       $SG405419                  10022cb0     MapWnd.obj
 0002:00000cb4       $SG405420                  10022cb4     MapWnd.obj
 0002:00000cb8       $SG405423                  10022cb8     MapWnd.obj
 0002:00000cc0       $SG405426                  10022cc0     MapWnd.obj
 0002:00000cc4       $SG405427                  10022cc4     MapWnd.obj
 0002:00000cd8       $SG405430                  10022cd8     MapWnd.obj
 0002:00000ce0       $SG405431                  10022ce0     MapWnd.obj
 0002:00000cf4       $SG405432                  10022cf4     MapWnd.obj
 0002:00000d04       $SG405435                  10022d04     MapWnd.obj
 0002:00000d08       $SG405436                  10022d08     MapWnd.obj
 0002:00000d1c       $SG405439                  10022d1c     MapWnd.obj
 0002:00000d24       $SG405440                  10022d24     MapWnd.obj
 0002:00000d38       $SG405441                  10022d38     MapWnd.obj
 0002:00000d48       $SG405442                  10022d48     MapWnd.obj
 0002:00000d8c       $SG405443                  10022d8c     MapWnd.obj
 0002:00000db0       $SG405446                  10022db0     MapWnd.obj
 0002:00000db4       $SG405447                  10022db4     MapWnd.obj
 0002:00000db8       $SG405449                  10022db8     MapWnd.obj
 0002:00000dbc       $SG405454                  10022dbc     MapWnd.obj
 0002:00000de4       $SG405455                  10022de4     MapWnd.obj
 0002:00000e0c       $SG405460                  10022e0c     MapWnd.obj
 0002:00000e10       $SG405461                  10022e10     MapWnd.obj
 0002:00000e38       $SG405462                  10022e38     MapWnd.obj
 0002:00000e60       $SG405465                  10022e60     MapWnd.obj
 0002:00000e64       $SG405466                  10022e64     MapWnd.obj
 0002:00000e8c       $SG405467                  10022e8c     MapWnd.obj
 0002:00000eb4       $SG405561                  10022eb4     MapWnd.obj
 0002:00000ec0       $SG405562                  10022ec0     MapWnd.obj
 0002:00000ec4       $SG405563                  10022ec4     MapWnd.obj
 0002:00000ed0       $SG405596                  10022ed0     MapWnd.obj
 0002:00000ed4       $SG405635                  10022ed4     MapWnd.obj
 0002:00000ee8       $SG405636                  10022ee8     MapWnd.obj
 0002:00000ef0       $SG405641                  10022ef0     MapWnd.obj
 0002:000010f0       ?_messageEntries@?1??GetThisMessageMap@CMapWnd@@KGPBUAFX_MSGMAP@@XZ@4QBUAFX_MSGMAP_ENTRY@@B 100230f0     MapWnd.obj
 0002:000011c8       ?messageMap@?1??GetThisMessageMap@CMapWnd@@KGPBUAFX_MSGMAP@@XZ@4U3@B 100231c8     MapWnd.obj
 0002:000011f8       $SG401850                  100231f8     Remain.obj
 0002:000011f9       $SG401851                  100231f9     Remain.obj
 0002:000011fa       $SG401852                  100231fa     Remain.obj
 0002:000011fb       $SG401853                  100231fb     Remain.obj
 0002:000011fc       $SG401854                  100231fc     Remain.obj
 0002:000011fd       $SG402176                  100231fd     Remain.obj
 0002:000011fe       $SG402253                  100231fe     Remain.obj
 0002:000011ff       $SG402254                  100231ff     Remain.obj
 0002:00001200       $SG401855                  10023200     Remain.obj
 0002:0000120a       $SG402489                  1002320a     Remain.obj
 0002:0000120c       $SG401856                  1002320c     Remain.obj
 0002:00001210       $SG401857                  10023210     Remain.obj
 0002:0000121c       $SG401858                  1002321c     Remain.obj
 0002:00001220       $SG401859                  10023220     Remain.obj
 0002:0000122c       $SG401860                  1002322c     Remain.obj
 0002:00001230       $SG401861                  10023230     Remain.obj
 0002:0000123c       $SG401862                  1002323c     Remain.obj
 0002:00001240       $SG401863                  10023240     Remain.obj
 0002:0000124c       $SG401864                  1002324c     Remain.obj
 0002:00001250       $SG401865                  10023250     Remain.obj
 0002:0000125c       $SG401866                  1002325c     Remain.obj
 0002:00001260       $SG401867                  10023260     Remain.obj
 0002:0000126c       $SG401868                  1002326c     Remain.obj
 0002:00001270       $SG401869                  10023270     Remain.obj
 0002:0000127c       $SG401870                  1002327c     Remain.obj
 0002:00001280       $SG401871                  10023280     Remain.obj
 0002:0000128c       $SG401872                  1002328c     Remain.obj
 0002:00001290       $SG401873                  10023290     Remain.obj
 0002:0000129c       $SG401874                  1002329c     Remain.obj
 0002:000012a0       $SG401875                  100232a0     Remain.obj
 0002:000012ac       $SG401876                  100232ac     Remain.obj
 0002:000012b0       $SG401877                  100232b0     Remain.obj
 0002:000012bc       $SG401878                  100232bc     Remain.obj
 0002:000012c0       $SG401956                  100232c0     Remain.obj
 0002:000012c4       $SG401957                  100232c4     Remain.obj
 0002:000012c8       $SG401958                  100232c8     Remain.obj
 0002:000012cc       $SG401959                  100232cc     Remain.obj
 0002:000012d0       $SG401960                  100232d0     Remain.obj
 0002:000012d4       $SG401961                  100232d4     Remain.obj
 0002:000012d8       $SG401962                  100232d8     Remain.obj
 0002:000012dc       $SG401963                  100232dc     Remain.obj
 0002:000012e0       $SG401964                  100232e0     Remain.obj
 0002:000012e4       $SG401965                  100232e4     Remain.obj
 0002:000012e8       $SG401966                  100232e8     Remain.obj
 0002:000012ec       $SG401967                  100232ec     Remain.obj
 0002:000012f0       $SG401968                  100232f0     Remain.obj
 0002:000012f4       $SG401969                  100232f4     Remain.obj
 0002:000012f8       $SG401970                  100232f8     Remain.obj
 0002:000012fc       $SG401971                  100232fc     Remain.obj
 0002:00001300       $SG401972                  10023300     Remain.obj
 0002:00001304       $SG401973                  10023304     Remain.obj
 0002:00001308       $SG401974                  10023308     Remain.obj
 0002:0000130c       $SG401975                  1002330c     Remain.obj
 0002:00001310       $SG401976                  10023310     Remain.obj
 0002:00001314       $SG402031                  10023314     Remain.obj
 0002:00001318       $SG402032                  10023318     Remain.obj
 0002:0000131c       $SG402036                  1002331c     Remain.obj
 0002:00001320       $SG402037                  10023320     Remain.obj
 0002:00001324       $SG402038                  10023324     Remain.obj
 0002:00001328       $SG402040                  10023328     Remain.obj
 0002:0000132c       $SG402041                  1002332c     Remain.obj
 0002:00001330       $SG402043                  10023330     Remain.obj
 0002:00001334       $SG402044                  10023334     Remain.obj
 0002:0000133c       $SG402046                  1002333c     Remain.obj
 0002:00001340       $SG402053                  10023340     Remain.obj
 0002:0000138c       $SG402060                  1002338c     Remain.obj
 0002:00001390       $SG402061                  10023390     Remain.obj
 0002:00001394       $SG402062                  10023394     Remain.obj
 0002:00001398       $SG402063                  10023398     Remain.obj
 0002:0000139c       $SG402064                  1002339c     Remain.obj
 0002:000013a0       $SG402066                  100233a0     Remain.obj
 0002:000013a4       $SG402069                  100233a4     Remain.obj
 0002:000013ac       $SG402072                  100233ac     Remain.obj
 0002:000013b4       $SG402074                  100233b4     Remain.obj
 0002:000013b8       $SG402083                  100233b8     Remain.obj
 0002:000013bc       $SG402084                  100233bc     Remain.obj
 0002:000013c0       $SG402085                  100233c0     Remain.obj
 0002:000013c4       $SG402118                  100233c4     Remain.obj
 0002:000013c8       $SG402119                  100233c8     Remain.obj
 0002:000013cc       $SG402120                  100233cc     Remain.obj
 0002:000013d0       $SG402121                  100233d0     Remain.obj
 0002:000013d4       $SG402122                  100233d4     Remain.obj
 0002:000013d8       $SG402123                  100233d8     Remain.obj
 0002:000013dc       $SG402124                  100233dc     Remain.obj
 0002:000013e0       $SG402125                  100233e0     Remain.obj
 0002:000013e4       $SG402126                  100233e4     Remain.obj
 0002:000013e8       $SG402127                  100233e8     Remain.obj
 0002:000013ec       $SG402128                  100233ec     Remain.obj
 0002:000013f0       $SG402129                  100233f0     Remain.obj
 0002:000013f4       $SG402131                  100233f4     Remain.obj
 0002:000013f8       $SG402132                  100233f8     Remain.obj
 0002:000013fc       $SG402170                  100233fc     Remain.obj
 0002:00001400       $SG402172                  10023400     Remain.obj
 0002:00001404       $SG402173                  10023404     Remain.obj
 0002:00001408       $SG402174                  10023408     Remain.obj
 0002:0000140c       $SG402175                  1002340c     Remain.obj
 0002:00001414       $SG402178                  10023414     Remain.obj
 0002:00001418       $SG402182                  10023418     Remain.obj
 0002:00001420       $SG402189                  10023420     Remain.obj
 0002:00001424       $SG402192                  10023424     Remain.obj
 0002:00001428       $SG402199                  10023428     Remain.obj
 0002:0000142c       $SG402202                  1002342c     Remain.obj
 0002:00001430       $SG402206                  10023430     Remain.obj
 0002:00001438       $SG402207                  10023438     Remain.obj
 0002:0000143c       $SG402208                  1002343c     Remain.obj
 0002:00001440       $SG402209                  10023440     Remain.obj
 0002:00001444       $SG402212                  10023444     Remain.obj
 0002:00001450       $SG402213                  10023450     Remain.obj
 0002:0000145c       $SG402214                  1002345c     Remain.obj
 0002:00001468       $SG402219                  10023468     Remain.obj
 0002:00001470       $SG402221                  10023470     Remain.obj
 0002:00001474       $SG402222                  10023474     Remain.obj
 0002:00001478       $SG402223                  10023478     Remain.obj
 0002:0000147c       $SG402224                  1002347c     Remain.obj
 0002:00001480       $SG402225                  10023480     Remain.obj
 0002:00001484       $SG402227                  10023484     Remain.obj
 0002:00001488       $SG402228                  10023488     Remain.obj
 0002:0000148c       $SG402230                  1002348c     Remain.obj
 0002:00001490       $SG402234                  10023490     Remain.obj
 0002:00001498       $SG402235                  10023498     Remain.obj
 0002:0000149c       $SG402236                  1002349c     Remain.obj
 0002:000014a0       $SG402237                  100234a0     Remain.obj
 0002:000014a4       $SG402239                  100234a4     Remain.obj
 0002:000014a8       $SG402242                  100234a8     Remain.obj
 0002:000014b0       $SG402243                  100234b0     Remain.obj
 0002:000014b4       $SG402244                  100234b4     Remain.obj
 0002:000014b8       $SG402245                  100234b8     Remain.obj
 0002:000014bc       $SG402246                  100234bc     Remain.obj
 0002:000014c0       $SG402247                  100234c0     Remain.obj
 0002:000014c4       $SG402248                  100234c4     Remain.obj
 0002:000014c8       $SG402252                  100234c8     Remain.obj
 0002:000014cc       $SG402257                  100234cc     Remain.obj
 0002:000014d4       $SG402258                  100234d4     Remain.obj
 0002:000014e0       $SG402259                  100234e0     Remain.obj
 0002:000014e4       $SG402260                  100234e4     Remain.obj
 0002:000014e8       $SG402261                  100234e8     Remain.obj
 0002:000014ec       $SG402263                  100234ec     Remain.obj
 0002:000014f4       $SG402264                  100234f4     Remain.obj
 0002:000014fc       $SG402265                  100234fc     Remain.obj
 0002:00001508       $SG402266                  10023508     Remain.obj
 0002:0000150c       $SG402267                  1002350c     Remain.obj
 0002:00001510       $SG402268                  10023510     Remain.obj
 0002:00001514       $SG402332                  10023514     Remain.obj
 0002:00001518       $SG402333                  10023518     Remain.obj
 0002:0000151c       $SG402334                  1002351c     Remain.obj
 0002:00001520       $SG402338                  10023520     Remain.obj
 0002:00001528       $SG402339                  10023528     Remain.obj
 0002:00001530       $SG402340                  10023530     Remain.obj
 0002:00001538       $SG402341                  10023538     Remain.obj
 0002:00001594       $SG402345                  10023594     Remain.obj
 0002:0000159c       $SG402349                  1002359c     Remain.obj
 0002:000015a0       $SG402346                  100235a0     Remain.obj
 0002:0000160c       $SG402357                  1002360c     Remain.obj
 0002:00001610       $SG402360                  10023610     Remain.obj
 0002:00001614       $SG402361                  10023614     Remain.obj
 0002:00001618       $SG402362                  10023618     Remain.obj
 0002:00001620       $SG402364                  10023620     Remain.obj
 0002:00001624       $SG402366                  10023624     Remain.obj
 0002:0000162c       $SG402368                  1002362c     Remain.obj
 0002:00001630       $SG402369                  10023630     Remain.obj
 0002:00001634       $SG402370                  10023634     Remain.obj
 0002:0000163c       $SG402372                  1002363c     Remain.obj
 0002:00001640       $SG402374                  10023640     Remain.obj
 0002:00001648       $SG402376                  10023648     Remain.obj
 0002:00001650       $SG402379                  10023650     Remain.obj
 0002:00001654       $SG402381                  10023654     Remain.obj
 0002:00001658       $SG402382                  10023658     Remain.obj
 0002:0000165c       $SG402386                  1002365c     Remain.obj
 0002:00001660       $SG402389                  10023660     Remain.obj
 0002:00001664       $SG402390                  10023664     Remain.obj
 0002:00001668       $SG402391                  10023668     Remain.obj
 0002:00001670       $SG402393                  10023670     Remain.obj
 0002:00001674       $SG402395                  10023674     Remain.obj
 0002:0000167c       $SG402397                  1002367c     Remain.obj
 0002:00001680       $SG402398                  10023680     Remain.obj
 0002:00001684       $SG402399                  10023684     Remain.obj
 0002:0000168c       $SG402401                  1002368c     Remain.obj
 0002:00001690       $SG402403                  10023690     Remain.obj
 0002:00001698       $SG402405                  10023698     Remain.obj
 0002:000016a0       $SG402408                  100236a0     Remain.obj
 0002:000016a4       $SG402410                  100236a4     Remain.obj
 0002:000016a8       $SG402432                  100236a8     Remain.obj
 0002:000016ac       $SG402441                  100236ac     Remain.obj
 0002:000016b0       $SG402442                  100236b0     Remain.obj
 0002:000016b4       $SG402444                  100236b4     Remain.obj
 0002:000016b8       $SG402453                  100236b8     Remain.obj
 0002:000016bc       $SG402454                  100236bc     Remain.obj
 0002:000016c0       $SG402456                  100236c0     Remain.obj
 0002:000016c4       $SG402463                  100236c4     Remain.obj
 0002:000016c8       $SG402490                  100236c8     Remain.obj
 0002:000016dc       $SG402491                  100236dc     Remain.obj
 0002:000016e4       $SG402492                  100236e4     Remain.obj
 0002:00001704       $SG402493                  10023704     Remain.obj
 0002:0000170c       $SG402494                  1002370c     Remain.obj
 0002:00001898       ?_messageEntries@?1??GetThisMessageMap@CRemain@@KGPBUAFX_MSGMAP@@XZ@4QBUAFX_MSGMAP_ENTRY@@B 10023898     Remain.obj
 0002:000018b0       ?messageMap@?1??GetThisMessageMap@CRemain@@KGPBUAFX_MSGMAP@@XZ@4U3@B 100238b0     Remain.obj
 0002:000018e0       $SG402190                  100238e0     RemainFuture.obj
 0002:000018e1       $SG402191                  100238e1     RemainFuture.obj
 0002:000018e2       $SG402204                  100238e2     RemainFuture.obj
 0002:000018e3       $SG402205                  100238e3     RemainFuture.obj
 0002:000018e4       $SG402269                  100238e4     RemainFuture.obj
 0002:000018e8       $SG402270                  100238e8     RemainFuture.obj
 0002:000018ec       $SG402274                  100238ec     RemainFuture.obj
 0002:000018ef       $SG402440                  100238ef     RemainFuture.obj
 0002:000018f0       $SG402275                  100238f0     RemainFuture.obj
 0002:000018f3       $SG402751                  100238f3     RemainFuture.obj
 0002:000018f4       $SG402276                  100238f4     RemainFuture.obj
 0002:000018f7       $SG402772                  100238f7     RemainFuture.obj
 0002:000018f8       $SG402277                  100238f8     RemainFuture.obj
 0002:000018fc       $SG402278                  100238fc     RemainFuture.obj
 0002:00001904       $SG402279                  10023904     RemainFuture.obj
 0002:0000190c       $SG402280                  1002390c     RemainFuture.obj
 0002:00001910       $SG402281                  10023910     RemainFuture.obj
 0002:00001914       $SG402282                  10023914     RemainFuture.obj
 0002:00001918       $SG402283                  10023918     RemainFuture.obj
 0002:0000191c       $SG402284                  1002391c     RemainFuture.obj
 0002:00001920       $SG402285                  10023920     RemainFuture.obj
 0002:00001924       $SG402286                  10023924     RemainFuture.obj
 0002:00001928       $SG402287                  10023928     RemainFuture.obj
 0002:0000192c       $SG402288                  1002392c     RemainFuture.obj
 0002:00001930       $SG402289                  10023930     RemainFuture.obj
 0002:00001934       $SG402290                  10023934     RemainFuture.obj
 0002:00001938       $SG402291                  10023938     RemainFuture.obj
 0002:0000193c       $SG402292                  1002393c     RemainFuture.obj
 0002:00001940       $SG402293                  10023940     RemainFuture.obj
 0002:00001944       $SG402314                  10023944     RemainFuture.obj
 0002:00001948       $SG402343                  10023948     RemainFuture.obj
 0002:0000194c       $SG402344                  1002394c     RemainFuture.obj
 0002:00001950       $SG402345                  10023950     RemainFuture.obj
 0002:00001954       $SG402346                  10023954     RemainFuture.obj
 0002:00001958       $SG402347                  10023958     RemainFuture.obj
 0002:0000195c       $SG402348                  1002395c     RemainFuture.obj
 0002:00001960       $SG402349                  10023960     RemainFuture.obj
 0002:00001964       $SG402350                  10023964     RemainFuture.obj
 0002:00001968       $SG402351                  10023968     RemainFuture.obj
 0002:0000196c       $SG402352                  1002396c     RemainFuture.obj
 0002:00001970       $SG402353                  10023970     RemainFuture.obj
 0002:00001974       $SG402354                  10023974     RemainFuture.obj
 0002:00001978       $SG402379                  10023978     RemainFuture.obj
 0002:0000197c       $SG402380                  1002397c     RemainFuture.obj
 0002:00001980       $SG402381                  10023980     RemainFuture.obj
 0002:00001984       $SG402384                  10023984     RemainFuture.obj
 0002:0000198c       $SG402385                  1002398c     RemainFuture.obj
 0002:00001994       $SG402386                  10023994     RemainFuture.obj
 0002:0000199c       $SG402387                  1002399c     RemainFuture.obj
 0002:000019a0       $SG402392                  100239a0     RemainFuture.obj
 0002:000019a8       $SG402394                  100239a8     RemainFuture.obj
 0002:000019ac       $SG402395                  100239ac     RemainFuture.obj
 0002:000019b0       $SG402399                  100239b0     RemainFuture.obj
 0002:000019b4       $SG402400                  100239b4     RemainFuture.obj
 0002:000019b8       $SG402401                  100239b8     RemainFuture.obj
 0002:000019bc       $SG402402                  100239bc     RemainFuture.obj
 0002:000019c0       $SG402403                  100239c0     RemainFuture.obj
 0002:000019c4       $SG402404                  100239c4     RemainFuture.obj
 0002:000019c8       $SG402405                  100239c8     RemainFuture.obj
 0002:000019d0       $SG402406                  100239d0     RemainFuture.obj
 0002:000019d8       $SG402407                  100239d8     RemainFuture.obj
 0002:000019dc       $SG402408                  100239dc     RemainFuture.obj
 0002:000019e4       $SG402409                  100239e4     RemainFuture.obj
 0002:000019ec       $SG402410                  100239ec     RemainFuture.obj
 0002:000019f4       $SG402411                  100239f4     RemainFuture.obj
 0002:000019f8       $SG402415                  100239f8     RemainFuture.obj
 0002:00001a00       $SG402416                  10023a00     RemainFuture.obj
 0002:00001a04       $SG402417                  10023a04     RemainFuture.obj
 0002:00001a08       $SG402418                  10023a08     RemainFuture.obj
 0002:00001a0c       $SG402422                  10023a0c     RemainFuture.obj
 0002:00001a10       $SG402423                  10023a10     RemainFuture.obj
 0002:00001a18       $SG402426                  10023a18     RemainFuture.obj
 0002:00001a1c       $SG402427                  10023a1c     RemainFuture.obj
 0002:00001a24       $SG402428                  10023a24     RemainFuture.obj
 0002:00001a2c       $SG402429                  10023a2c     RemainFuture.obj
 0002:00001a34       $SG402430                  10023a34     RemainFuture.obj
 0002:00001a38       $SG402432                  10023a38     RemainFuture.obj
 0002:00001a3c       $SG402433                  10023a3c     RemainFuture.obj
 0002:00001a40       $SG402434                  10023a40     RemainFuture.obj
 0002:00001a44       $SG402441                  10023a44     RemainFuture.obj
 0002:00001a48       $SG402442                  10023a48     RemainFuture.obj
 0002:00001a4c       $SG402443                  10023a4c     RemainFuture.obj
 0002:00001a54       $SG402444                  10023a54     RemainFuture.obj
 0002:00001a5c       $SG402445                  10023a5c     RemainFuture.obj
 0002:00001a64       $SG402446                  10023a64     RemainFuture.obj
 0002:00001a68       $SG402448                  10023a68     RemainFuture.obj
 0002:00001a6c       $SG402449                  10023a6c     RemainFuture.obj
 0002:00001a70       $SG402450                  10023a70     RemainFuture.obj
 0002:00001a74       $SG402452                  10023a74     RemainFuture.obj
 0002:00001a78       $SG402453                  10023a78     RemainFuture.obj
 0002:00001a7c       $SG402457                  10023a7c     RemainFuture.obj
 0002:00001a80       $SG402458                  10023a80     RemainFuture.obj
 0002:00001a88       $SG402459                  10023a88     RemainFuture.obj
 0002:00001a90       $SG402460                  10023a90     RemainFuture.obj
 0002:00001a98       $SG402461                  10023a98     RemainFuture.obj
 0002:00001aa0       $SG402462                  10023aa0     RemainFuture.obj
 0002:00001aa8       $SG402463                  10023aa8     RemainFuture.obj
 0002:00001ab0       $SG402464                  10023ab0     RemainFuture.obj
 0002:00001ab8       $SG402465                  10023ab8     RemainFuture.obj
 0002:00001abc       $SG402467                  10023abc     RemainFuture.obj
 0002:00001ac0       $SG402518                  10023ac0     RemainFuture.obj
 0002:00001ac8       $SG402520                  10023ac8     RemainFuture.obj
 0002:00001acc       $SG402523                  10023acc     RemainFuture.obj
 0002:00001ad4       $SG402524                  10023ad4     RemainFuture.obj
 0002:00001adc       $SG402525                  10023adc     RemainFuture.obj
 0002:00001ae4       $SG402528                  10023ae4     RemainFuture.obj
 0002:00001ae8       $SG402530                  10023ae8     RemainFuture.obj
 0002:00001aec       $SG402534                  10023aec     RemainFuture.obj
 0002:00001af0       $SG402535                  10023af0     RemainFuture.obj
 0002:00001af8       $SG402548                  10023af8     RemainFuture.obj
 0002:00001afc       $SG402551                  10023afc     RemainFuture.obj
 0002:00001b04       $SG402552                  10023b04     RemainFuture.obj
 0002:00001b08       $SG402560                  10023b08     RemainFuture.obj
 0002:00001b0c       $SG402562                  10023b0c     RemainFuture.obj
 0002:00001b14       $SG402563                  10023b14     RemainFuture.obj
 0002:00001b18       $SG402576                  10023b18     RemainFuture.obj
 0002:00001b1c       $SG402578                  10023b1c     RemainFuture.obj
 0002:00001b24       $SG402579                  10023b24     RemainFuture.obj
 0002:00001b28       $SG402582                  10023b28     RemainFuture.obj
 0002:00001b30       $SG402585                  10023b30     RemainFuture.obj
 0002:00001b3c       $SG402588                  10023b3c     RemainFuture.obj
 0002:00001b48       $SG402590                  10023b48     RemainFuture.obj
 0002:00001b50       $SG402592                  10023b50     RemainFuture.obj
 0002:00001b58       $SG402622                  10023b58     RemainFuture.obj
 0002:00001b64       $SG402623                  10023b64     RemainFuture.obj
 0002:00001b68       $SG402624                  10023b68     RemainFuture.obj
 0002:00001b74       $SG402626                  10023b74     RemainFuture.obj
 0002:00001b94       $SG402647                  10023b94     RemainFuture.obj
 0002:00001b9c       $SG402672                  10023b9c     RemainFuture.obj
 0002:00001ba0       $SG402773                  10023ba0     RemainFuture.obj
 0002:00001bb4       $SG402774                  10023bb4     RemainFuture.obj
 0002:00001bbc       $SG402775                  10023bbc     RemainFuture.obj
 0002:00001bdc       $SG402776                  10023bdc     RemainFuture.obj
 0002:00001be4       $SG402777                  10023be4     RemainFuture.obj
 0002:00001d58       ?_messageEntries@?1??GetThisMessageMap@CRemainFuture@@KGPBUAFX_MSGMAP@@XZ@4QBUAFX_MSGMAP_ENTRY@@B 10023d58     RemainFuture.obj
 0002:00001d88       ?messageMap@?1??GetThisMessageMap@CRemainFuture@@KGPBUAFX_MSGMAP@@XZ@4U3@B 10023d88     RemainFuture.obj
 0002:00001de0       $SG400328                  10023de0     ShMemory.obj
 0002:00001de4       $SG400329                  10023de4     ShMemory.obj
 0002:00001df0       $SG98594                   10023df0     StdAfx.obj
 0002:00001e00       $SG98665                   10023e00     StdAfx.obj
 0002:00001e0c       $SG98712                   10023e0c     StdAfx.obj
 0002:00001e18       $SG98759                   10023e18     StdAfx.obj
 0002:00001e2c       $SG98806                   10023e2c     StdAfx.obj
 0002:00001e40       $SG98853                   10023e40     StdAfx.obj
 0002:00001e54       $SG180817                  10023e54     StdAfx.obj
 0002:00001e58       $SG180819                  10023e58     StdAfx.obj
 0002:00001e5c       $SG98900                   10023e5c     StdAfx.obj
 0002:00001e70       $SG180821                  10023e70     StdAfx.obj
 0002:00001e74       $SG180823                  10023e74     StdAfx.obj
 0002:00001e78       $SG180825                  10023e78     StdAfx.obj
 0002:00001e7c       $SG180827                  10023e7c     StdAfx.obj
 0002:00001e88       $SG180829                  10023e88     StdAfx.obj
 0002:00001e94       $SG180831                  10023e94     StdAfx.obj
 0002:00001e9c       $SG98947                   10023e9c     StdAfx.obj
 0002:00001eac       $SG98994                   10023eac     StdAfx.obj
 0002:00001ec0       $SG99041                   10023ec0     StdAfx.obj
 0002:00001ed4       $SG99088                   10023ed4     StdAfx.obj
 0002:00001ee4       $SG99135                   10023ee4     StdAfx.obj
 0002:00001ef4       $SG99182                   10023ef4     StdAfx.obj
 0002:00001f08       $SG99229                   10023f08     StdAfx.obj
 0002:00001f1c       $SG99276                   10023f1c     StdAfx.obj
 0002:00001f2c       $SG99323                   10023f2c     StdAfx.obj
 0002:00001f3c       $SG99370                   10023f3c     StdAfx.obj
 0002:00001f4c       $SG99417                   10023f4c     StdAfx.obj
 0002:00001f5c       $SG99464                   10023f5c     StdAfx.obj
 0002:00001f68       $SG99469                   10023f68     StdAfx.obj
 0002:00001f78       $SG99516                   10023f78     StdAfx.obj
 0002:00001f8c       $SG99563                   10023f8c     StdAfx.obj
 0002:00001f9c       $SG99610                   10023f9c     StdAfx.obj
 0002:00001fac       $SG181581                  10023fac     StdAfx.obj
 0002:00001fb4       $SG181582                  10023fb4     StdAfx.obj
 0002:00001fbc       $SG181583                  10023fbc     StdAfx.obj
 0002:00001fd4       $SG181584                  10023fd4     StdAfx.obj
 0002:00001fe0       $SG181585                  10023fe0     StdAfx.obj
 0002:00001fec       $SG181586                  10023fec     StdAfx.obj
 0002:00001ff8       $SG181587                  10023ff8     StdAfx.obj
 0002:00002000       $SG181588                  10024000     StdAfx.obj
 0002:00002004       $SG181589                  10024004     StdAfx.obj
 0002:00002010       $SG181590                  10024010     StdAfx.obj
 0002:00002018       $SG181591                  10024018     StdAfx.obj
 0002:00002024       $SG181592                  10024024     StdAfx.obj
 0002:0000202c       $SG149177                  1002402c     StdAfx.obj
 0002:00002040       $SG149179                  10024040     StdAfx.obj
 0002:00002058       $SG372153                  10024058     StdAfx.obj
 0002:00002114       _GS_ExceptionPointers      10024114     msvcrt:gs_report.obj
 0002:00003040       __unwindtable$?axCreate@@YGPAVCWnd@@PAV1@@Z 10025040     libmap.obj
 0002:00003050       __ehfuncinfo$?axCreate@@YGPAVCWnd@@PAV1@@Z 10025050     libmap.obj
 0002:00003074       __unwindtable$??$make_unique@VCWnd@@$$V$0A@@std@@YA?AV?$unique_ptr@VCWnd@@U?$default_delete@VCWnd@@@std@@@0@XZ 10025074     MapWnd.obj
 0002:00003074       __unwindtable$??$make_unique@VCMapWnd@@$$V$0A@@std@@YA?AV?$unique_ptr@VCMapWnd@@U?$default_delete@VCMapWnd@@@std@@@0@XZ 10025074     libmap.obj
 0002:0000307c       __ehfuncinfo$??$make_unique@VCWnd@@$$V$0A@@std@@YA?AV?$unique_ptr@VCWnd@@U?$default_delete@VCWnd@@@std@@@0@XZ 1002507c     MapWnd.obj
 0002:0000307c       __ehfuncinfo$??$make_unique@VCMapWnd@@$$V$0A@@std@@YA?AV?$unique_ptr@VCMapWnd@@U?$default_delete@VCMapWnd@@@std@@@0@XZ 1002507c     libmap.obj
 0002:000030a0       __unwindtable$??HATL@@YA?AV?$CStringT@DV?$StrTraitMFC_DLL@DV?$ChTraitsCRT@D@ATL@@@@@0@ABV10@0@Z 100250a0     MapWnd.obj
 0002:000030a8       __ehfuncinfo$??HATL@@YA?AV?$CStringT@DV?$StrTraitMFC_DLL@DV?$ChTraitsCRT@D@ATL@@@@@0@ABV10@0@Z 100250a8     MapWnd.obj
 0002:000030cc       __unwindtable$??HATL@@YA?AV?$CStringT@DV?$StrTraitMFC_DLL@DV?$ChTraitsCRT@D@ATL@@@@@0@ABV10@PBD@Z 100250cc     MapWnd.obj
 0002:000030cc       __unwindtable$??HATL@@YA?AV?$CStringT@DV?$StrTraitMFC_DLL@DV?$ChTraitsCRT@D@ATL@@@@@0@PBDABV10@@Z 100250cc     MapWnd.obj
 0002:000030d4       __ehfuncinfo$??HATL@@YA?AV?$CStringT@DV?$StrTraitMFC_DLL@DV?$ChTraitsCRT@D@ATL@@@@@0@ABV10@PBD@Z 100250d4     MapWnd.obj
 0002:000030d4       __ehfuncinfo$??HATL@@YA?AV?$CStringT@DV?$StrTraitMFC_DLL@DV?$ChTraitsCRT@D@ATL@@@@@0@PBDABV10@@Z 100250d4     MapWnd.obj
 0002:000030f8       __unwindtable$??HATL@@YA?AV?$CStringT@DV?$StrTraitMFC_DLL@DV?$ChTraitsCRT@D@ATL@@@@@0@DABV10@@Z 100250f8     MapWnd.obj
 0002:00003100       __ehfuncinfo$??HATL@@YA?AV?$CStringT@DV?$StrTraitMFC_DLL@DV?$ChTraitsCRT@D@ATL@@@@@0@DABV10@@Z 10025100     MapWnd.obj
 0002:00003124       __ehfuncinfo$??$_Deallocate@$07$0A@@std@@YAXPAXI@Z 10025124     MapWnd.obj
 0002:00003124       __ehfuncinfo$??$_Destroy_range@V?$allocator@V?$unique_ptr@VCAccn@@U?$default_delete@VCAccn@@@std@@@std@@@std@@@std@@YAXPAV?$unique_ptr@VCAccn@@U?$default_delete@VCAccn@@@std@@@0@QAV10@AAV?$allocator@V?$unique_ptr@VCAccn@@U?$default_delete@VCAccn@@@std@@@std@@@0@@Z 10025124     MapWnd.obj
 0002:00003124       __ehfuncinfo$??8ATL@@YA_NABV?$CStringT@DV?$StrTraitMFC_DLL@DV?$ChTraitsCRT@D@ATL@@@@@0@0@Z 10025124     MapWnd.obj
 0002:00003124       __ehfuncinfo$??8ATL@@YA_NABV?$CStringT@DV?$StrTraitMFC_DLL@DV?$ChTraitsCRT@D@ATL@@@@@0@PBD@Z 10025124     MapWnd.obj
 0002:00003124       __ehfuncinfo$??9ATL@@YA_NABV?$CStringT@DV?$StrTraitMFC_DLL@DV?$ChTraitsCRT@D@ATL@@@@@0@PBD@Z 10025124     MapWnd.obj
 0002:00003124       __ehfuncinfo$?GetDay@CTime@ATL@@QBEHXZ 10025124     MapWnd.obj
 0002:00003124       __ehfuncinfo$?GetHour@CTime@ATL@@QBEHXZ 10025124     MapWnd.obj
 0002:00003124       __ehfuncinfo$?GetMinute@CTime@ATL@@QBEHXZ 10025124     MapWnd.obj
 0002:00003124       __ehfuncinfo$?GetMonth@CTime@ATL@@QBEHXZ 10025124     MapWnd.obj
 0002:00003124       __ehfuncinfo$?GetSecond@CTime@ATL@@QBEHXZ 10025124     MapWnd.obj
 0002:00003124       __ehfuncinfo$?_Tidy@?$vector@V?$unique_ptr@VCAccn@@U?$default_delete@VCAccn@@@std@@@std@@V?$allocator@V?$unique_ptr@VCAccn@@U?$default_delete@VCAccn@@@std@@@std@@@2@@std@@AAEXXZ 10025124     MapWnd.obj
 0002:00003124       __ehfuncinfo$??1?$CMap@HHV?$CStringT@DV?$StrTraitMFC_DLL@DV?$ChTraitsCRT@D@ATL@@@@@ATL@@V12@@@UAE@XZ 10025124     Remain.obj
 0002:00003124       __ehfuncinfo$??NATL@@YA_NABV?$CStringT@DV?$StrTraitMFC_DLL@DV?$ChTraitsCRT@D@ATL@@@@@0@PBD@Z 10025124     RemainFuture.obj
 0002:00003124       __ehfuncinfo$??OATL@@YA_NABV?$CStringT@DV?$StrTraitMFC_DLL@DV?$ChTraitsCRT@D@ATL@@@@@0@PBD@Z 10025124     RemainFuture.obj
 0002:00003124       __ehfuncinfo$??PATL@@YA_NABV?$CStringT@DV?$StrTraitMFC_DLL@DV?$ChTraitsCRT@D@ATL@@@@@0@PBD@Z 10025124     RemainFuture.obj
 0002:00003124       __ehfuncinfo$?Init@CComCriticalSection@ATL@@QAEJXZ 10025124     StdAfx.obj
 0002:00003148       __unwindtable$??0CCriticalSection@@QAE@XZ 10025148     MapWnd.obj
 0002:00003150       __ehfuncinfo$??0CCriticalSection@@QAE@XZ 10025150     MapWnd.obj
 0002:00003174       __unwindtable$??0CAccn@@QAE@XZ 10025174     MapWnd.obj
 0002:00003194       __ehfuncinfo$??0CAccn@@QAE@XZ 10025194     MapWnd.obj
 0002:000031b8       __unwindtable$?getAxBitmapA@@YAPAVCBitmap@@PAVCWnd@@V?$CStringT@DV?$StrTraitMFC_DLL@DV?$ChTraitsCRT@D@ATL@@@@@ATL@@@Z 100251b8     MapWnd.obj
 0002:000031c0       __unwindtable$?getAxFontA@@YAPAVCFont@@PAVCWnd@@V?$CStringT@DV?$StrTraitMFC_DLL@DV?$ChTraitsCRT@D@ATL@@@@@ATL@@HH@Z 100251c0     MapWnd.obj
 0002:000031c8       __unwindtable$?openViewA@@YAHPAVCWnd@@HV?$CStringT@DV?$StrTraitMFC_DLL@DV?$ChTraitsCRT@D@ATL@@@@@ATL@@@Z 100251c8     MapWnd.obj
 0002:000031d0       __unwindtable$?removeRemain@CMapWnd@@AAEXPAVCAccn@@@Z 100251d0     MapWnd.obj
 0002:000031d8       __unwindtable$?removeAccn@CMapWnd@@AAEXV?$CStringT@DV?$StrTraitMFC_DLL@DV?$ChTraitsCRT@D@ATL@@@@@ATL@@@Z 100251d8     MapWnd.obj
 0002:000031e0       __unwindtable$?variant@CMapWnd@@AAE?AV?$CStringT@DV?$StrTraitMFC_DLL@DV?$ChTraitsCRT@D@ATL@@@@@ATL@@HV23@@Z 100251e0     MapWnd.obj
 0002:000031e8       __unwindtable$?getTime@CMapWnd@@AAE?AV?$CStringT@DV?$StrTraitMFC_DLL@DV?$ChTraitsCRT@D@ATL@@@@@ATL@@XZ 100251e8     MapWnd.obj
 0002:000031f0       __unwindtable$?openView@CMapWnd@@AAEHHV?$CStringT@DV?$StrTraitMFC_DLL@DV?$ChTraitsCRT@D@ATL@@@@@ATL@@@Z 100251f0     MapWnd.obj
 0002:000031f8       __unwindtable$?sendToControl@CMapWnd@@AAEXV?$CStringT@DV?$StrTraitMFC_DLL@DV?$ChTraitsCRT@D@ATL@@@@@ATL@@@Z 100251f8     MapWnd.obj
 0002:00003200       __unwindtable$?OnDestroy@CMapWnd@@IAEXXZ 10025200     MapWnd.obj
 0002:00003208       __unwindtable$?OnPaint@CMapWnd@@IAEXXZ 10025208     MapWnd.obj
 0002:00003210       __unwindtable$?VariantA@@YA?AV?$CStringT@DV?$StrTraitMFC_DLL@DV?$ChTraitsCRT@D@ATL@@@@@ATL@@PAVCWnd@@HV12@@Z 10025210     MapWnd.obj
 0002:00003220       __unwindtable$?GetPriceUnit@@YANNV?$CStringT@DV?$StrTraitMFC_DLL@DV?$ChTraitsCRT@D@ATL@@@@@ATL@@_N@Z 10025220     MapWnd.obj
 0002:00003230       __unwindtable$?RemoveCB@CMapWnd@@AAEXV?$CStringT@DV?$StrTraitMFC_DLL@DV?$ChTraitsCRT@D@ATL@@@@@ATL@@@Z 10025230     MapWnd.obj
 0002:00003240       __unwindtable$?Is3RDCode@CMapWnd@@QAE_NV?$CStringT@DV?$StrTraitMFC_DLL@DV?$ChTraitsCRT@D@ATL@@@@@ATL@@@Z 10025240     MapWnd.obj
 0002:00003250       __unwindtable$?GetNewLawHandleKey@CMapWnd@@QAEHXZ 10025250     MapWnd.obj
 0002:00003268       __unwindtable$?GetNewAccHandleKey@CMapWnd@@QAEHXZ 10025268     MapWnd.obj
 0002:00003280       __unwindtable$?getRemainFee@CMapWnd@@AAEHXZ 10025280     MapWnd.obj
 0002:00003298       __unwindtable$?attachCB@CMapWnd@@AAEXPAUHWND__@@V?$CStringT@DV?$StrTraitMFC_DLL@DV?$ChTraitsCRT@D@ATL@@@@@ATL@@@Z 10025298     MapWnd.obj
 0002:000032b0       __unwindtable$?CreateMapObjectA@@YAPAVCWnd@@PAV1@0V?$CStringT@DV?$StrTraitMFC_DLL@DV?$ChTraitsCRT@D@ATL@@@@@ATL@@AAHVCPoint@@@Z 100252b0     MapWnd.obj
 0002:000032d0       __unwindtable$?parseX@@YA?AV?$CStringT@DV?$StrTraitMFC_DLL@DV?$ChTraitsCRT@D@ATL@@@@@ATL@@AAV12@V12@@Z 100252d0     MapWnd.obj
 0002:000032f0       __unwindtable$?GetEncPassword@CMapWnd@@AAE?AV?$CStringT@DV?$StrTraitMFC_DLL@DV?$ChTraitsCRT@D@ATL@@@@@ATL@@V23@@Z 100252f0     MapWnd.obj
 0002:00003310       __unwindtable$?parser@CMapWnd@@AAE?AV?$CStringT@DV?$StrTraitMFC_DLL@DV?$ChTraitsCRT@D@ATL@@@@@ATL@@AAV23@V23@@Z 10025310     MapWnd.obj
 0002:00003330       __unwindtable$?CreateMap@CMapWnd@@QAEHPAVCWnd@@@Z 10025330     MapWnd.obj
 0002:00003350       __unwindtable$?OnCloseOfCtrl@CMapWnd@@IAEJIJ@Z 10025350     MapWnd.obj
 0002:00003370       __ehfuncinfo$?CreateMapObjectA@@YAPAVCWnd@@PAV1@0V?$CStringT@DV?$StrTraitMFC_DLL@DV?$ChTraitsCRT@D@ATL@@@@@ATL@@AAHVCPoint@@@Z 10025370     MapWnd.obj
 0002:00003394       __ehfuncinfo$?VariantA@@YA?AV?$CStringT@DV?$StrTraitMFC_DLL@DV?$ChTraitsCRT@D@ATL@@@@@ATL@@PAVCWnd@@HV12@@Z 10025394     MapWnd.obj
 0002:000033b8       __ehfuncinfo$?getAxBitmapA@@YAPAVCBitmap@@PAVCWnd@@V?$CStringT@DV?$StrTraitMFC_DLL@DV?$ChTraitsCRT@D@ATL@@@@@ATL@@@Z 100253b8     MapWnd.obj
 0002:000033dc       __ehfuncinfo$?getAxFontA@@YAPAVCFont@@PAVCWnd@@V?$CStringT@DV?$StrTraitMFC_DLL@DV?$ChTraitsCRT@D@ATL@@@@@ATL@@HH@Z 100253dc     MapWnd.obj
 0002:00003400       __ehfuncinfo$?SendTRA@@YAHPAVCWnd@@V?$CStringT@DV?$StrTraitMFC_DLL@DV?$ChTraitsCRT@D@ATL@@@@@ATL@@E1H1@Z 10025400     MapWnd.obj
 0002:00003424       __ehfuncinfo$?openViewA@@YAHPAVCWnd@@HV?$CStringT@DV?$StrTraitMFC_DLL@DV?$ChTraitsCRT@D@ATL@@@@@ATL@@@Z 10025424     MapWnd.obj
 0002:00003448       __ehfuncinfo$?SetComma@@YA?AV?$CStringT@DV?$StrTraitMFC_DLL@DV?$ChTraitsCRT@D@ATL@@@@@ATL@@V12@@Z 10025448     MapWnd.obj
 0002:0000346c       __ehfuncinfo$?GetPriceUnit@@YANNV?$CStringT@DV?$StrTraitMFC_DLL@DV?$ChTraitsCRT@D@ATL@@@@@ATL@@_N@Z 1002546c     MapWnd.obj
 0002:00003490       __ehfuncinfo$?parseX@@YA?AV?$CStringT@DV?$StrTraitMFC_DLL@DV?$ChTraitsCRT@D@ATL@@@@@ATL@@AAV12@V12@@Z 10025490     MapWnd.obj
 0002:000034b4       __ehfuncinfo$?GetEncPassword@CMapWnd@@AAE?AV?$CStringT@DV?$StrTraitMFC_DLL@DV?$ChTraitsCRT@D@ATL@@@@@ATL@@V23@@Z 100254b4     MapWnd.obj
 0002:000034d8       __ehfuncinfo$?SendLawNotice@CMapWnd@@AAEXV?$CStringT@DV?$StrTraitMFC_DLL@DV?$ChTraitsCRT@D@ATL@@@@@ATL@@@Z 100254d8     MapWnd.obj
 0002:000034fc       __ehfuncinfo$?GetRightHwnd@CMapWnd@@AAEPAUHWND__@@V?$CStringT@DV?$StrTraitMFC_DLL@DV?$ChTraitsCRT@D@ATL@@@@@ATL@@@Z 100254fc     MapWnd.obj
 0002:00003520       __ehfuncinfo$?RemoveCB@CMapWnd@@AAEXV?$CStringT@DV?$StrTraitMFC_DLL@DV?$ChTraitsCRT@D@ATL@@@@@ATL@@@Z 10025520     MapWnd.obj
 0002:00003544       __ehfuncinfo$?GetNewLawHandleKey@CMapWnd@@QAEHXZ 10025544     MapWnd.obj
 0002:00003568       __ehfuncinfo$?GetNewAccHandleKey@CMapWnd@@QAEHXZ 10025568     MapWnd.obj
 0002:0000358c       __ehfuncinfo$?GetHandleByKey@CMapWnd@@QAE?AV?$CStringT@DV?$StrTraitMFC_DLL@DV?$ChTraitsCRT@D@ATL@@@@@ATL@@V23@@Z 1002558c     MapWnd.obj
 0002:000035b0       __ehfuncinfo$?sendTR@CMapWnd@@QAEHV?$CStringT@DV?$StrTraitMFC_DLL@DV?$ChTraitsCRT@D@ATL@@@@@ATL@@0HH0@Z 100255b0     MapWnd.obj
 0002:000035d4       __ehfuncinfo$?Is3RDCode@CMapWnd@@QAE_NV?$CStringT@DV?$StrTraitMFC_DLL@DV?$ChTraitsCRT@D@ATL@@@@@ATL@@@Z 100255d4     MapWnd.obj
 0002:000035f8       __ehfuncinfo$?LoadCode@CMapWnd@@QAEHXZ 100255f8     MapWnd.obj
 0002:0000361c       __ehfuncinfo$?removeRemain@CMapWnd@@AAEXPAVCAccn@@@Z 1002561c     MapWnd.obj
 0002:00003640       __ehfuncinfo$?removeAccn@CMapWnd@@AAEXV?$CStringT@DV?$StrTraitMFC_DLL@DV?$ChTraitsCRT@D@ATL@@@@@ATL@@@Z 10025640     MapWnd.obj
 0002:00003664       __ehfuncinfo$?variant@CMapWnd@@AAE?AV?$CStringT@DV?$StrTraitMFC_DLL@DV?$ChTraitsCRT@D@ATL@@@@@ATL@@HV23@@Z 10025664     MapWnd.obj
 0002:00003688       __ehfuncinfo$?getTime@CMapWnd@@AAE?AV?$CStringT@DV?$StrTraitMFC_DLL@DV?$ChTraitsCRT@D@ATL@@@@@ATL@@XZ 10025688     MapWnd.obj
 0002:000036ac       __ehfuncinfo$?parser@CMapWnd@@AAE?AV?$CStringT@DV?$StrTraitMFC_DLL@DV?$ChTraitsCRT@D@ATL@@@@@ATL@@AAV23@V23@@Z 100256ac     MapWnd.obj
 0002:000036d0       __ehfuncinfo$?openView@CMapWnd@@AAEHHV?$CStringT@DV?$StrTraitMFC_DLL@DV?$ChTraitsCRT@D@ATL@@@@@ATL@@@Z 100256d0     MapWnd.obj
 0002:000036f4       __ehfuncinfo$?ledgerTR@CMapWnd@@AAE?AV?$CStringT@DV?$StrTraitMFC_DLL@DV?$ChTraitsCRT@D@ATL@@@@@ATL@@V23@00@Z 100256f4     MapWnd.obj
 0002:00003718       __ehfuncinfo$?getKey@CMapWnd@@AAE?AV?$CStringT@DV?$StrTraitMFC_DLL@DV?$ChTraitsCRT@D@ATL@@@@@ATL@@_NV23@111H@Z 10025718     MapWnd.obj
 0002:0000373c       __ehfuncinfo$?getRemainFee@CMapWnd@@AAEHXZ 1002573c     MapWnd.obj
 0002:00003760       __ehfuncinfo$?parsingNotice@CMapWnd@@AAE?AV?$CStringT@DV?$StrTraitMFC_DLL@DV?$ChTraitsCRT@D@ATL@@@@@ATL@@V23@@Z 10025760     MapWnd.obj
 0002:00003784       __ehfuncinfo$?parsingRTSx@CMapWnd@@AAEXPAU_alertR@@@Z 10025784     MapWnd.obj
 0002:000037a8       __ehfuncinfo$?parsingRTS@CMapWnd@@AAEXV?$CStringT@DV?$StrTraitMFC_DLL@DV?$ChTraitsCRT@D@ATL@@@@@ATL@@@Z 100257a8     MapWnd.obj
 0002:000037cc       __ehfuncinfo$?parsingNContData@CMapWnd@@AAEXPAD@Z 100257cc     MapWnd.obj
 0002:000037f0       __ehfuncinfo$?sendNContTR@CMapWnd@@AAEXV?$CStringT@DV?$StrTraitMFC_DLL@DV?$ChTraitsCRT@D@ATL@@@@@ATL@@@Z 100257f0     MapWnd.obj
 0002:00003814       __ehfuncinfo$?detachCB@CMapWnd@@AAEXV?$CStringT@DV?$StrTraitMFC_DLL@DV?$ChTraitsCRT@D@ATL@@@@@ATL@@00@Z 10025814     MapWnd.obj
 0002:00003838       __ehfuncinfo$?attachCB@CMapWnd@@AAEXPAUHWND__@@V?$CStringT@DV?$StrTraitMFC_DLL@DV?$ChTraitsCRT@D@ATL@@@@@ATL@@@Z 10025838     MapWnd.obj
 0002:0000385c       __ehfuncinfo$?sendToControl@CMapWnd@@AAEXV?$CStringT@DV?$StrTraitMFC_DLL@DV?$ChTraitsCRT@D@ATL@@@@@ATL@@PAVCAccn@@@Z 1002585c     MapWnd.obj
 0002:00003880       __ehfuncinfo$?sendToControl@CMapWnd@@AAEXV?$CStringT@DV?$StrTraitMFC_DLL@DV?$ChTraitsCRT@D@ATL@@@@@ATL@@@Z 10025880     MapWnd.obj
 0002:000038a4       __ehfuncinfo$?parsingRemainData@CMapWnd@@AAE?AV?$CStringT@DV?$StrTraitMFC_DLL@DV?$ChTraitsCRT@D@ATL@@@@@ATL@@PADHV23@H@Z 100258a4     MapWnd.obj
 0002:000038c8       __ehfuncinfo$?sendLawCheg@CMapWnd@@AAEXV?$CStringT@DV?$StrTraitMFC_DLL@DV?$ChTraitsCRT@D@ATL@@@@@ATL@@000PAUHWND__@@@Z 100258c8     MapWnd.obj
 0002:000038ec       __ehfuncinfo$?sendRemainTR@CMapWnd@@AAEXV?$CStringT@DV?$StrTraitMFC_DLL@DV?$ChTraitsCRT@D@ATL@@@@@ATL@@0_N1HNNHHPAUHWND__@@@Z 100258ec     MapWnd.obj
 0002:00003910       __ehfuncinfo$?CreateMap@CMapWnd@@QAEHPAVCWnd@@@Z 10025910     MapWnd.obj
 0002:00003934       __ehfuncinfo$?OnReceiveRemainData@CMapWnd@@IAEJIJ@Z 10025934     MapWnd.obj
 0002:00003958       __ehfuncinfo$?OnCloseOfCtrl@CMapWnd@@IAEJIJ@Z 10025958     MapWnd.obj
 0002:0000397c       __ehfuncinfo$?OnRequestLawCheg@CMapWnd@@IAEJIJ@Z 1002597c     MapWnd.obj
 0002:000039a0       __ehfuncinfo$?OnRequestOfCtrl@CMapWnd@@IAEJIJ@Z 100259a0     MapWnd.obj
 0002:000039c4       __ehfuncinfo$?OnMessage@CMapWnd@@IAEJIJ@Z 100259c4     MapWnd.obj
 0002:000039e8       __ehfuncinfo$?OnDestroy@CMapWnd@@IAEXXZ 100259e8     MapWnd.obj
 0002:00003a0c       __ehfuncinfo$?OnPaint@CMapWnd@@IAEXXZ 10025a0c     MapWnd.obj
 0002:00003a30       __ehfuncinfo$??1CMapWnd@@UAE@XZ 10025a30     MapWnd.obj
 0002:00003a54       __ehfuncinfo$??0CMapWnd@@QAE@XZ 10025a54     MapWnd.obj
 0002:00003a78       __unwindtable$?SendTRA@@YAHPAVCWnd@@V?$CStringT@DV?$StrTraitMFC_DLL@DV?$ChTraitsCRT@D@ATL@@@@@ATL@@E1H1@Z 10025a78     MapWnd.obj
 0002:00003aa0       __unwindtable$?GetHandleByKey@CMapWnd@@QAE?AV?$CStringT@DV?$StrTraitMFC_DLL@DV?$ChTraitsCRT@D@ATL@@@@@ATL@@V23@@Z 10025aa0     MapWnd.obj
 0002:00003ac8       __unwindtable$?ledgerTR@CMapWnd@@AAE?AV?$CStringT@DV?$StrTraitMFC_DLL@DV?$ChTraitsCRT@D@ATL@@@@@ATL@@V23@00@Z 10025ac8     MapWnd.obj
 0002:00003af0       __unwindtable$?getKey@CMapWnd@@AAE?AV?$CStringT@DV?$StrTraitMFC_DLL@DV?$ChTraitsCRT@D@ATL@@@@@ATL@@_NV23@111H@Z 10025af0     MapWnd.obj
 0002:00003b18       __unwindtable$?sendTR@CMapWnd@@QAEHV?$CStringT@DV?$StrTraitMFC_DLL@DV?$ChTraitsCRT@D@ATL@@@@@ATL@@0HH0@Z 10025b18     MapWnd.obj
 0002:00003b48       __unwindtable$?LoadCode@CMapWnd@@QAEHXZ 10025b48     MapWnd.obj
 0002:00003b78       __unwindtable$?GetRightHwnd@CMapWnd@@AAEPAUHWND__@@V?$CStringT@DV?$StrTraitMFC_DLL@DV?$ChTraitsCRT@D@ATL@@@@@ATL@@@Z 10025b78     MapWnd.obj
 0002:00003bb0       __unwindtable$?detachCB@CMapWnd@@AAEXV?$CStringT@DV?$StrTraitMFC_DLL@DV?$ChTraitsCRT@D@ATL@@@@@ATL@@00@Z 10025bb0     MapWnd.obj
 0002:00003be8       __unwindtable$?sendLawCheg@CMapWnd@@AAEXV?$CStringT@DV?$StrTraitMFC_DLL@DV?$ChTraitsCRT@D@ATL@@@@@ATL@@000PAUHWND__@@@Z 10025be8     MapWnd.obj
 0002:00003c20       __unwindtable$?OnRequestLawCheg@CMapWnd@@IAEJIJ@Z 10025c20     MapWnd.obj
 0002:00003c58       __unwindtable$?SetComma@@YA?AV?$CStringT@DV?$StrTraitMFC_DLL@DV?$ChTraitsCRT@D@ATL@@@@@ATL@@V12@@Z 10025c58     MapWnd.obj
 0002:00003c98       __unwindtable$?sendToControl@CMapWnd@@AAEXV?$CStringT@DV?$StrTraitMFC_DLL@DV?$ChTraitsCRT@D@ATL@@@@@ATL@@PAVCAccn@@@Z 10025c98     MapWnd.obj
 0002:00003ce8       __unwindtable$?parsingNContData@CMapWnd@@AAEXPAD@Z 10025ce8     MapWnd.obj
 0002:00003d40       __unwindtable$?sendNContTR@CMapWnd@@AAEXV?$CStringT@DV?$StrTraitMFC_DLL@DV?$ChTraitsCRT@D@ATL@@@@@ATL@@@Z 10025d40     MapWnd.obj
 0002:00003da0       __unwindtable$??0CMapWnd@@QAE@XZ 10025da0     MapWnd.obj
 0002:00003e20       __unwindtable$?OnMessage@CMapWnd@@IAEJIJ@Z 10025e20     MapWnd.obj
 0002:00003eb8       __unwindtable$?OnRequestOfCtrl@CMapWnd@@IAEJIJ@Z 10025eb8     MapWnd.obj
 0002:00003f58       __unwindtable$?parsingRTSx@CMapWnd@@AAEXPAU_alertR@@@Z 10025f58     MapWnd.obj
 0002:00004010       __unwindtable$?sendRemainTR@CMapWnd@@AAEXV?$CStringT@DV?$StrTraitMFC_DLL@DV?$ChTraitsCRT@D@ATL@@@@@ATL@@0_N1HNNHHPAUHWND__@@@Z 10026010     MapWnd.obj
 0002:000040d0       __unwindtable$?parsingRemainData@CMapWnd@@AAE?AV?$CStringT@DV?$StrTraitMFC_DLL@DV?$ChTraitsCRT@D@ATL@@@@@ATL@@PADHV23@H@Z 100260d0     MapWnd.obj
 0002:00004198       __unwindtable$?OnReceiveRemainData@CMapWnd@@IAEJIJ@Z 10026198     MapWnd.obj
 0002:00004260       __unwindtable$?parsingRTS@CMapWnd@@AAEXV?$CStringT@DV?$StrTraitMFC_DLL@DV?$ChTraitsCRT@D@ATL@@@@@ATL@@@Z 10026260     MapWnd.obj
 0002:00004348       __unwindtable$?SendLawNotice@CMapWnd@@AAEXV?$CStringT@DV?$StrTraitMFC_DLL@DV?$ChTraitsCRT@D@ATL@@@@@ATL@@@Z 10026348     MapWnd.obj
 0002:00004470       __unwindtable$?parsingNotice@CMapWnd@@AAE?AV?$CStringT@DV?$StrTraitMFC_DLL@DV?$ChTraitsCRT@D@ATL@@@@@ATL@@V23@@Z 10026470     MapWnd.obj
 0002:00004620       __unwindtable$??$make_unique@VCAccn@@$$V$0A@@std@@YA?AV?$unique_ptr@VCAccn@@U?$default_delete@VCAccn@@@std@@@0@XZ 10026620     MapWnd.obj
 0002:00004628       __ehfuncinfo$??$make_unique@VCAccn@@$$V$0A@@std@@YA?AV?$unique_ptr@VCAccn@@U?$default_delete@VCAccn@@@std@@@0@XZ 10026628     MapWnd.obj
 0002:0000464c       __catchsym$??$_Emplace_reallocate@V?$unique_ptr@VCAccn@@U?$default_delete@VCAccn@@@std@@@std@@@?$vector@V?$unique_ptr@VCAccn@@U?$default_delete@VCAccn@@@std@@@std@@V?$allocator@V?$unique_ptr@VCAccn@@U?$default_delete@VCAccn@@@std@@@std@@@2@@std@@QAEPAV?$unique_ptr@VCAccn@@U?$default_delete@VCAccn@@@std@@@1@QAV21@$$QAV21@@Z$2 1002664c     MapWnd.obj
 0002:0000465c       __unwindtable$??$_Emplace_reallocate@V?$unique_ptr@VCAccn@@U?$default_delete@VCAccn@@@std@@@std@@@?$vector@V?$unique_ptr@VCAccn@@U?$default_delete@VCAccn@@@std@@@std@@V?$allocator@V?$unique_ptr@VCAccn@@U?$default_delete@VCAccn@@@std@@@std@@@2@@std@@QAEPAV?$unique_ptr@VCAccn@@U?$default_delete@VCAccn@@@std@@@1@QAV21@$$QAV21@@Z 1002665c     MapWnd.obj
 0002:0000466c       __tryblocktable$??$_Emplace_reallocate@V?$unique_ptr@VCAccn@@U?$default_delete@VCAccn@@@std@@@std@@@?$vector@V?$unique_ptr@VCAccn@@U?$default_delete@VCAccn@@@std@@@std@@V?$allocator@V?$unique_ptr@VCAccn@@U?$default_delete@VCAccn@@@std@@@std@@@2@@std@@QAEPAV?$unique_ptr@VCAccn@@U?$default_delete@VCAccn@@@std@@@1@QAV21@$$QAV21@@Z 1002666c     MapWnd.obj
 0002:00004680       __ehfuncinfo$??$_Emplace_reallocate@V?$unique_ptr@VCAccn@@U?$default_delete@VCAccn@@@std@@@std@@@?$vector@V?$unique_ptr@VCAccn@@U?$default_delete@VCAccn@@@std@@@std@@V?$allocator@V?$unique_ptr@VCAccn@@U?$default_delete@VCAccn@@@std@@@std@@@2@@std@@QAEPAV?$unique_ptr@VCAccn@@U?$default_delete@VCAccn@@@std@@@1@QAV21@$$QAV21@@Z 10026680     MapWnd.obj
 0002:000046a4       __unwindtable$??$make_unique@VCShMemory@@$$V$0A@@std@@YA?AV?$unique_ptr@VCShMemory@@U?$default_delete@VCShMemory@@@std@@@0@XZ 100266a4     MapWnd.obj
 0002:000046ac       __ehfuncinfo$??$make_unique@VCShMemory@@$$V$0A@@std@@YA?AV?$unique_ptr@VCShMemory@@U?$default_delete@VCShMemory@@@std@@@0@XZ 100266ac     MapWnd.obj
 0002:000046d0       __unwindtable$??$_Uninitialized_move@PAV?$unique_ptr@VCAccn@@U?$default_delete@VCAccn@@@std@@@std@@V?$allocator@V?$unique_ptr@VCAccn@@U?$default_delete@VCAccn@@@std@@@std@@@2@@std@@YAPAV?$unique_ptr@VCAccn@@U?$default_delete@VCAccn@@@std@@@0@QAV10@0PAV10@AAV?$allocator@V?$unique_ptr@VCAccn@@U?$default_delete@VCAccn@@@std@@@std@@@0@@Z 100266d0     MapWnd.obj
 0002:000046d8       __ehfuncinfo$??$_Uninitialized_move@PAV?$unique_ptr@VCAccn@@U?$default_delete@VCAccn@@@std@@@std@@V?$allocator@V?$unique_ptr@VCAccn@@U?$default_delete@VCAccn@@@std@@@std@@@2@@std@@YAPAV?$unique_ptr@VCAccn@@U?$default_delete@VCAccn@@@std@@@0@QAV10@0PAV10@AAV?$allocator@V?$unique_ptr@VCAccn@@U?$default_delete@VCAccn@@@std@@@std@@@0@@Z 100266d8     MapWnd.obj
 0002:00004770       __unwindtable$?FillString@CRemain@@QAEXAAV?$CStringT@DV?$StrTraitMFC_DLL@DV?$ChTraitsCRT@D@ATL@@@@@ATL@@H@Z 10026770     Remain.obj
 0002:00004778       __unwindtable$?getCreditX@CRemain@@AAE?AV?$CStringT@DV?$StrTraitMFC_DLL@DV?$ChTraitsCRT@D@ATL@@@@@ATL@@V23@@Z 10026778     Remain.obj
 0002:00004788       __unwindtable$?getCredit@CRemain@@AAE?AV?$CStringT@DV?$StrTraitMFC_DLL@DV?$ChTraitsCRT@D@ATL@@@@@ATL@@V23@@Z 10026788     Remain.obj
 0002:00004798       __unwindtable$?getFormatData@CRemain@@AAE?AV?$CStringT@DV?$StrTraitMFC_DLL@DV?$ChTraitsCRT@D@ATL@@@@@ATL@@V23@@Z 10026798     Remain.obj
 0002:000047b0       __ehfuncinfo$?testSaveFile@CRemain@@QAEXV?$CStringT@DV?$StrTraitMFC_DLL@DV?$ChTraitsCRT@D@ATL@@@@@ATL@@@Z 100267b0     Remain.obj
 0002:000047d4       __ehfuncinfo$?getCreditX@CRemain@@AAE?AV?$CStringT@DV?$StrTraitMFC_DLL@DV?$ChTraitsCRT@D@ATL@@@@@ATL@@V23@@Z 100267d4     Remain.obj
 0002:000047f8       __ehfuncinfo$?getCredit@CRemain@@AAE?AV?$CStringT@DV?$StrTraitMFC_DLL@DV?$ChTraitsCRT@D@ATL@@@@@ATL@@V23@@Z 100267f8     Remain.obj
 0002:0000481c       __ehfuncinfo$?getFormatData@CRemain@@AAE?AV?$CStringT@DV?$StrTraitMFC_DLL@DV?$ChTraitsCRT@D@ATL@@@@@ATL@@V23@@Z 1002681c     Remain.obj
 0002:00004840       __ehfuncinfo$?FillString@CRemain@@QAEXAAV?$CStringT@DV?$StrTraitMFC_DLL@DV?$ChTraitsCRT@D@ATL@@@@@ATL@@H@Z 10026840     Remain.obj
 0002:00004864       __ehfuncinfo$?CalPgsonik@CRemain@@QAE_NV?$CStringT@DV?$StrTraitMFC_DLL@DV?$ChTraitsCRT@D@ATL@@@@@ATL@@0H@Z 10026864     Remain.obj
 0002:00004888       __ehfuncinfo$?CalRemainData@CRemain@@QAEHAAVCMapStringToString@@V?$CStringT@DV?$StrTraitMFC_DLL@DV?$ChTraitsCRT@D@ATL@@@@@ATL@@_N@Z 10026888     Remain.obj
 0002:000048ac       __ehfuncinfo$?ParsingAllaccnData@CRemain@@QAEXV?$CStringT@DV?$StrTraitMFC_DLL@DV?$ChTraitsCRT@D@ATL@@@@@ATL@@@Z 100268ac     Remain.obj
 0002:000048d0       __ehfuncinfo$?ParsingRemainData@CRemain@@QAEXPAD@Z 100268d0     Remain.obj
 0002:000048f4       __ehfuncinfo$?TotalData@CRemain@@QAE?AV?$CStringT@DV?$StrTraitMFC_DLL@DV?$ChTraitsCRT@D@ATL@@@@@ATL@@XZ 100268f4     Remain.obj
 0002:00004918       __ehfuncinfo$??1CRemain@@UAE@XZ 10026918     Remain.obj
 0002:0000493c       __ehfuncinfo$??0CRemain@@QAE@PAVCWnd@@@Z 1002693c     Remain.obj
 0002:00004960       __ehfuncinfo$??0CRemain@@QAE@XZ 10026960     Remain.obj
 0002:00004984       __unwindtable$?testSaveFile@CRemain@@QAEXV?$CStringT@DV?$StrTraitMFC_DLL@DV?$ChTraitsCRT@D@ATL@@@@@ATL@@@Z 10026984     Remain.obj
 0002:000049b4       __unwindtable$?CalPgsonik@CRemain@@QAE_NV?$CStringT@DV?$StrTraitMFC_DLL@DV?$ChTraitsCRT@D@ATL@@@@@ATL@@0H@Z 100269b4     Remain.obj
 0002:00004a14       __unwindtable$?ParsingAllaccnData@CRemain@@QAEXV?$CStringT@DV?$StrTraitMFC_DLL@DV?$ChTraitsCRT@D@ATL@@@@@ATL@@@Z 10026a14     Remain.obj
 0002:00004a8c       __unwindtable$?CalRemainData@CRemain@@QAEHAAVCMapStringToString@@V?$CStringT@DV?$StrTraitMFC_DLL@DV?$ChTraitsCRT@D@ATL@@@@@ATL@@_N@Z 10026a8c     Remain.obj
 0002:00004b0c       __unwindtable$?ParsingRemainData@CRemain@@QAEXPAD@Z 10026b0c     Remain.obj
 0002:00004bbc       __unwindtable$??0CRemain@@QAE@PAVCWnd@@@Z 10026bbc     Remain.obj
 0002:00004c6c       __unwindtable$??0CRemain@@QAE@XZ 10026c6c     Remain.obj
 0002:00004d34       __unwindtable$?TotalData@CRemain@@QAE?AV?$CStringT@DV?$StrTraitMFC_DLL@DV?$ChTraitsCRT@D@ATL@@@@@ATL@@XZ 10026d34     Remain.obj
 0002:00004e8c       __unwindtable$?SetAt@?$CMap@HHV?$CStringT@DV?$StrTraitMFC_DLL@DV?$ChTraitsCRT@D@ATL@@@@@ATL@@V12@@@QAEXHV?$CStringT@DV?$StrTraitMFC_DLL@DV?$ChTraitsCRT@D@ATL@@@@@ATL@@@Z 10026e8c     Remain.obj
 0002:00004e94       __ehfuncinfo$?SetAt@?$CMap@HHV?$CStringT@DV?$StrTraitMFC_DLL@DV?$ChTraitsCRT@D@ATL@@@@@ATL@@V12@@@QAEXHV?$CStringT@DV?$StrTraitMFC_DLL@DV?$ChTraitsCRT@D@ATL@@@@@ATL@@@Z 10026e94     Remain.obj
 0002:00004eb8       __unwindtable$?Serialize@?$CMap@HHV?$CStringT@DV?$StrTraitMFC_DLL@DV?$ChTraitsCRT@D@ATL@@@@@ATL@@V12@@@UAEXAAVCArchive@@@Z 10026eb8     Remain.obj
 0002:00004ec0       __ehfuncinfo$?Serialize@?$CMap@HHV?$CStringT@DV?$StrTraitMFC_DLL@DV?$ChTraitsCRT@D@ATL@@@@@ATL@@V12@@@UAEXAAVCArchive@@@Z 10026ec0     Remain.obj
 0002:00004ee4       __unwindtable$?parser@CRemain@@AAE?AV?$CStringT@DV?$StrTraitMFC_DLL@DV?$ChTraitsCRT@D@ATL@@@@@ATL@@AAV23@V23@@Z 10026ee4     Remain.obj
 0002:00004f04       __ehfuncinfo$?parser@CRemain@@AAE?AV?$CStringT@DV?$StrTraitMFC_DLL@DV?$ChTraitsCRT@D@ATL@@@@@ATL@@AAV23@V23@@Z 10026f04     Remain.obj
 0002:00004f28       __unwindtable$?getString@CRemainFuture@@AAE?AV?$CStringT@DV?$StrTraitMFC_DLL@DV?$ChTraitsCRT@D@ATL@@@@@ATL@@PADH@Z 10026f28     RemainFuture.obj
 0002:00004f30       __unwindtable$?getJKind@CRemainFuture@@AAEHV?$CStringT@DV?$StrTraitMFC_DLL@DV?$ChTraitsCRT@D@ATL@@@@@ATL@@@Z 10026f30     RemainFuture.obj
 0002:00004f38       __unwindtable$?getBase@CRemainFuture@@AAEXXZ 10026f38     RemainFuture.obj
 0002:00004f48       __unwindtable$?getNoCont@CRemainFuture@@AAEHV?$CStringT@DV?$StrTraitMFC_DLL@DV?$ChTraitsCRT@D@ATL@@@@@ATL@@@Z 10026f48     RemainFuture.obj
 0002:00004f58       __unwindtable$?SetNoCont@CRemainFuture@@QAEXV?$CStringT@DV?$StrTraitMFC_DLL@DV?$ChTraitsCRT@D@ATL@@@@@ATL@@H@Z 10026f58     RemainFuture.obj
 0002:00004f68       __unwindtable$?getFormatData@CRemainFuture@@AAE?AV?$CStringT@DV?$StrTraitMFC_DLL@DV?$ChTraitsCRT@D@ATL@@@@@ATL@@V23@@Z 10026f68     RemainFuture.obj
 0002:00004f80       __unwindtable$?parsingNcont@CRemainFuture@@AAEXV?$CStringT@DV?$StrTraitMFC_DLL@DV?$ChTraitsCRT@D@ATL@@@@@ATL@@0H@Z 10026f80     RemainFuture.obj
 0002:00004f98       __unwindtable$?parser@CRemainFuture@@AAE?AV?$CStringT@DV?$StrTraitMFC_DLL@DV?$ChTraitsCRT@D@ATL@@@@@ATL@@AAV23@V23@@Z 10026f98     RemainFuture.obj
 0002:00004fb8       __unwindtable$?CalPgsonik@CRemainFuture@@QAE_NV?$CStringT@DV?$StrTraitMFC_DLL@DV?$ChTraitsCRT@D@ATL@@@@@ATL@@00@Z 10026fb8     RemainFuture.obj
 0002:00004fd8       __ehfuncinfo$?testSaveFile@CRemainFuture@@QAEXV?$CStringT@DV?$StrTraitMFC_DLL@DV?$ChTraitsCRT@D@ATL@@@@@ATL@@_N@Z 10026fd8     RemainFuture.obj
 0002:00004ffc       __ehfuncinfo$?getString@CRemainFuture@@AAE?AV?$CStringT@DV?$StrTraitMFC_DLL@DV?$ChTraitsCRT@D@ATL@@@@@ATL@@PADH@Z 10026ffc     RemainFuture.obj
 0002:00005020       __ehfuncinfo$?parser@CRemainFuture@@AAE?AV?$CStringT@DV?$StrTraitMFC_DLL@DV?$ChTraitsCRT@D@ATL@@@@@ATL@@AAV23@V23@@Z 10027020     RemainFuture.obj
 0002:00005044       __ehfuncinfo$?getJKind@CRemainFuture@@AAEHV?$CStringT@DV?$StrTraitMFC_DLL@DV?$ChTraitsCRT@D@ATL@@@@@ATL@@@Z 10027044     RemainFuture.obj
 0002:00005068       __ehfuncinfo$?getFormatData@CRemainFuture@@AAE?AV?$CStringT@DV?$StrTraitMFC_DLL@DV?$ChTraitsCRT@D@ATL@@@@@ATL@@V23@@Z 10027068     RemainFuture.obj
 0002:0000508c       __ehfuncinfo$?getBase@CRemainFuture@@AAEXXZ 1002708c     RemainFuture.obj
 0002:000050b0       __ehfuncinfo$?parsingNcont@CRemainFuture@@AAEXV?$CStringT@DV?$StrTraitMFC_DLL@DV?$ChTraitsCRT@D@ATL@@@@@ATL@@0H@Z 100270b0     RemainFuture.obj
 0002:000050d4       __ehfuncinfo$?getNoCont@CRemainFuture@@AAEHV?$CStringT@DV?$StrTraitMFC_DLL@DV?$ChTraitsCRT@D@ATL@@@@@ATL@@@Z 100270d4     RemainFuture.obj
 0002:000050f8       __ehfuncinfo$?GetBaseValue@CRemainFuture@@QAENV?$CStringT@DV?$StrTraitMFC_DLL@DV?$ChTraitsCRT@D@ATL@@@@@ATL@@@Z 100270f8     RemainFuture.obj
 0002:0000511c       __ehfuncinfo$?SetNoCont@CRemainFuture@@QAEXV?$CStringT@DV?$StrTraitMFC_DLL@DV?$ChTraitsCRT@D@ATL@@@@@ATL@@H@Z 1002711c     RemainFuture.obj
 0002:00005140       __ehfuncinfo$?CalPgsonik@CRemainFuture@@QAE_NV?$CStringT@DV?$StrTraitMFC_DLL@DV?$ChTraitsCRT@D@ATL@@@@@ATL@@00@Z 10027140     RemainFuture.obj
 0002:00005164       __ehfuncinfo$?CalPgsonik@CRemainFuture@@QAEXXZ 10027164     RemainFuture.obj
 0002:00005188       __ehfuncinfo$?CalRemainData@CRemainFuture@@QAEHAAVCMapStringToString@@V?$CStringT@DV?$StrTraitMFC_DLL@DV?$ChTraitsCRT@D@ATL@@@@@ATL@@_N@Z 10027188     RemainFuture.obj
 0002:000051ac       __ehfuncinfo$?ParsingAllaccnData@CRemainFuture@@QAEXV?$CStringT@DV?$StrTraitMFC_DLL@DV?$ChTraitsCRT@D@ATL@@@@@ATL@@@Z 100271ac     RemainFuture.obj
 0002:000051d0       __ehfuncinfo$?ParsingRemainData@CRemainFuture@@QAEXPAD@Z 100271d0     RemainFuture.obj
 0002:000051f4       __ehfuncinfo$?TotalData@CRemainFuture@@QAE?AV?$CStringT@DV?$StrTraitMFC_DLL@DV?$ChTraitsCRT@D@ATL@@@@@ATL@@XZ 100271f4     RemainFuture.obj
 0002:00005218       __ehfuncinfo$??0CRemainFuture@@QAE@PAVCWnd@@@Z 10027218     RemainFuture.obj
 0002:0000523c       __ehfuncinfo$??0CRemainFuture@@QAE@XZ 1002723c     RemainFuture.obj
 0002:00005260       __unwindtable$?CalPgsonik@CRemainFuture@@QAEXXZ 10027260     RemainFuture.obj
 0002:00005290       __unwindtable$?testSaveFile@CRemainFuture@@QAEXV?$CStringT@DV?$StrTraitMFC_DLL@DV?$ChTraitsCRT@D@ATL@@@@@ATL@@_N@Z 10027290     RemainFuture.obj
 0002:000052d0       __unwindtable$?CalRemainData@CRemainFuture@@QAEHAAVCMapStringToString@@V?$CStringT@DV?$StrTraitMFC_DLL@DV?$ChTraitsCRT@D@ATL@@@@@ATL@@_N@Z 100272d0     RemainFuture.obj
 0002:00005320       __unwindtable$?ParsingAllaccnData@CRemainFuture@@QAEXV?$CStringT@DV?$StrTraitMFC_DLL@DV?$ChTraitsCRT@D@ATL@@@@@ATL@@@Z 10027320     RemainFuture.obj
 0002:00005388       __unwindtable$?ParsingRemainData@CRemainFuture@@QAEXPAD@Z 10027388     RemainFuture.obj
 0002:000053f0       __unwindtable$?GetBaseValue@CRemainFuture@@QAENV?$CStringT@DV?$StrTraitMFC_DLL@DV?$ChTraitsCRT@D@ATL@@@@@ATL@@@Z 100273f0     RemainFuture.obj
 0002:00005460       __unwindtable$??0CRemainFuture@@QAE@PAVCWnd@@@Z 10027460     RemainFuture.obj
 0002:000054e0       __unwindtable$??0CRemainFuture@@QAE@XZ 100274e0     RemainFuture.obj
 0002:00005560       __unwindtable$?TotalData@CRemainFuture@@QAE?AV?$CStringT@DV?$StrTraitMFC_DLL@DV?$ChTraitsCRT@D@ATL@@@@@ATL@@XZ 10027560     RemainFuture.obj
 0002:00005720       __unwindtable$?SendTrigger@CShMemory@@QAEXV?$CStringT@DV?$StrTraitMFC_DLL@DV?$ChTraitsCRT@D@ATL@@@@@ATL@@PAUHWND__@@@Z 10027720     ShMemory.obj
 0002:00005730       __ehfuncinfo$?SendTrigger@CShMemory@@QAEXV?$CStringT@DV?$StrTraitMFC_DLL@DV?$ChTraitsCRT@D@ATL@@@@@ATL@@PAUHWND__@@@Z 10027730     ShMemory.obj
 0002:00005754       __unwindtable$?AfxWndProcDllStatic@@YGJPAUHWND__@@IIJ@Z 10027754     mfcs140:dllmodul.obj
 0002:0000575c       __ehfuncinfo$?AfxWndProcDllStatic@@YGJPAUHWND__@@IIJ@Z 1002775c     mfcs140:dllmodul.obj
 0002:00005780       __catchsym$_InternalDllMain@12$7 10027780     mfcs140:dllmodul.obj
 0002:00005790       __tryblocktable$_InternalDllMain@12 10027790     mfcs140:dllmodul.obj
 0002:000057a4       __unwindtable$_InternalDllMain@12 100277a4     mfcs140:dllmodul.obj
 0002:000057c4       __ehfuncinfo$_InternalDllMain@12 100277c4     mfcs140:dllmodul.obj
 0002:000057e8       __sehtable$___scrt_is_nonwritable_in_current_image 100277e8     msvcrt:utility.obj
 0002:00005808       __sehtable$??_L@YGXPAXIIP6EX0@Z1@Z 10027808     msvcrt:ehvecctr.obj
 0002:00005828       __sehtable$??_M@YGXPAXIIP6EX0@Z@Z 10027828     msvcrt:ehvecdtr.obj
 0002:00005848       __sehtable$?__ArrayUnwind@@YGXPAXIIP6EX0@Z@Z 10027848     msvcrt:ehvecdtr.obj
 0002:00005868       __sehtable$?dllmain_crt_process_attach@@YAHQAUHINSTANCE__@@QAX@Z 10027868     msvcrt:dll_dllmain.obj
 0002:00005888       __sehtable$?dllmain_crt_process_detach@@YAH_N@Z 10027888     msvcrt:dll_dllmain.obj
 0002:000058b0       __sehtable$?dllmain_dispatch@@YAHQAUHINSTANCE__@@KQAX@Z 100278b0     msvcrt:dll_dllmain.obj
 0002:000058d0       __sehtable$__IsNonwritableInCurrentImage 100278d0     mfcs140:rawdllmainproxy.obj
 0002:000058f0       .edata                     100278f0     IBXXXX00.exp
 0002:00005918       rgpv                       10027918     IBXXXX00.exp
 0002:0000591c       rgszName                   1002791c     IBXXXX00.exp
 0002:00005920       rgwOrd                     10027920     IBXXXX00.exp
 0002:00005922       szName                     10027922     IBXXXX00.exp
 0002:0000592f       $N00001                    1002792f     IBXXXX00.exp
 0002:00005f8c       .idata$6                   10027f8c     mfc140:mfc140.dll
 0002:00006252       .idata$6                   10028252     kernel32:KERNEL32.dll
 0002:000062cc       .idata$6                   100282cc     user32:USER32.dll
 0002:000062f8       .idata$6                   100282f8     msvcprt:MSVCP140.dll
 0002:000063e6       .idata$6                   100283e6     vcruntime:VCRUNTIME140.dll
 0002:00006578       .idata$6                   10028578     ucrt:api-ms-win-crt-runtime-l1-1-0.dll
 0002:0000659a       .idata$6                   1002859a     ucrt:api-ms-win-crt-string-l1-1-0.dll
 0002:000065bc       .idata$6                   100285bc     ucrt:api-ms-win-crt-multibyte-l1-1-0.dll
 0002:000065e0       .idata$6                   100285e0     ucrt:api-ms-win-crt-convert-l1-1-0.dll
 0002:00006602       .idata$6                   10028602     ucrt:api-ms-win-crt-time-l1-1-0.dll
 0002:00006622       .idata$6                   10028622     ucrt:api-ms-win-crt-utility-l1-1-0.dll
 0002:00006644       .idata$6                   10028644     ucrt:api-ms-win-crt-math-l1-1-0.dll
 0002:00006664       .idata$6                   10028664     ucrt:api-ms-win-crt-heap-l1-1-0.dll
 0003:0000039c       ?controlDLL@@3UAFX_EXTENSION_MODULE@@A 1002939c     mfcs140:dllmodul.obj
 0003:000003b0       ?afxModuleState@@3V_AFX_DLL_MODULE_STATE@@A 100293b0     mfcs140:dllmodul.obj
 0003:0000044c       ?pafxModuleStatePrev@@3PAVAFX_MODULE_STATE@@A 1002944c     mfcs140:dllmodul.obj
 0003:00000460       ?is_initialized_as_dll@@3_NA 10029460     msvcrt:utility.obj
 0003:00000461       ?module_local_atexit_table_initialized@@3_NA 10029461     msvcrt:utility.obj
 0003:00000464       ?module_local_atexit_table@@3U_onexit_table_t@@A 10029464     msvcrt:utility.obj
 0003:00000470       ?module_local_at_quick_exit_table@@3U_onexit_table_t@@A 10029470     msvcrt:utility.obj
 0003:0000047c       ?g_tss_cv@@3U_RTL_CONDITION_VARIABLE@@A 1002947c     msvcrt:thread_safe_statics.obj
 0003:00000480       ?g_tss_event@@3PAXA        10029480     msvcrt:thread_safe_statics.obj
 0003:00000484       ?g_tss_mutex@@3U_RTL_CRITICAL_SECTION@@A 10029484     msvcrt:thread_safe_statics.obj
 0003:0000049c       ?g_sleep_condition_variable_cs@@3P6GHPAU_RTL_CONDITION_VARIABLE@@PAU_RTL_CRITICAL_SECTION@@K@ZA 1002949c     msvcrt:thread_safe_statics.obj
 0003:000004a0       ?g_wake_all_condition_variable@@3P6GXPAU_RTL_CONDITION_VARIABLE@@@ZA 100294a0     msvcrt:thread_safe_statics.obj
 0003:000004a8       ?__proc_attached@@3HA      100294a8     msvcrt:dll_dllmain.obj
 0003:000004c0       _GS_ExceptionRecord        100294c0     msvcrt:gs_report.obj
 0003:00000510       _GS_ContextRecord          10029510     msvcrt:gs_report.obj
 0004:000000a0       $R000000                   1002a0a0     IBXXXX02.res
 0004:000003d8       $R000338                   1002a3d8     IBXXXX02.res

 Exports

  ordinal    name

        1    ?axCreate@@YGPAVCWnd@@PAV1@@Z (class CWnd * __stdcall axCreate(class CWnd *))
               exported name: axCreate
